
 SPL_DEB

 Start         Length     Name                   Class
 0001:00000000 0000012B0H CODE32                 CODE 32-bit
	at offset 00000000 012ADH bytes from P:\spooler\debug\spooler.obj (p:\Spooler\spooler.c)

 0002:00000000 000000000H CONST32_RO             CONST 32-bit

 0002:00000000 000000C78H DATA32                 DATA 32-bit
	at offset 00000000 00C74H bytes from P:\spooler\debug\spooler.obj (p:\Spooler\spooler.c)
	at offset 00000c74 00004H bytes from F:\IBMCPP\LIB\CPPOM30O.lib (D:\SwordCSD\crt\dllstub.asm)

 0002:00000C78 000000000H CTOR_DTOR1             DATA 32-bit

 0002:00000C78 000000000H CTOR_DTOR2             DATA 32-bit

 0002:00000C78 000000000H CTOR_DTOR3             DATA 32-bit

 0002:00000C78 000000000H EDC1                   EDC_CLASS 32-bit

 0002:00000C78 000000000H EDC2                   EDC_CLASS 32-bit

 0002:00000C78 000000000H EDC3                   EDC_CLASS 32-bit

 0002:00000C78 000000008H BSS32                  BSS 32-bit
	at offset 00000000 00008H bytes from P:\spooler\debug\spooler.obj (p:\Spooler\spooler.c)

 0002:00000C80 000000874H c_common               BSS 32-bit


 Origin   Group
 0000:0   FLAT
 0002:0   DGROUP

 Address       Export                  Alias

 0001:00000268 SPLPDENUMPORT           SPLPDENUMPORT
 0001:00000AB0 SPLPDGETPORTICON        SPLPDGETPORTICON
 0001:00000592 SPLPDINITPORT           SPLPDINITPORT
 0001:00000814 SPLPDINSTALLPORT        SPLPDINSTALLPORT
 0001:00000AD0 SPLPDQUERYPORT          SPLPDQUERYPORT
 0001:00000EC8 SPLPDREMOVEPORT         SPLPDREMOVEPORT
 0001:00000BB0 SPLPDSETPORT            SPLPDSETPORT
 0001:00001002 SPLPDTERMPORT           SPLPDTERMPORT

  Address         Publics by Name

 0002:00000C84       aszDeviceList
 0002:00000C78       bSpoolerEnabled
 0001:00001140       CopyPortInfo
 0000:00000000  Imp  DosClose             (DOSCALLS.257)
 0000:00000000  Imp  DosFreeModule        (DOSCALLS.322)
 0000:00000000  Imp  DosLoadModule        (DOSCALLS.318)
 0000:00000000  Imp  DosOpen              (DOSCALLS.273)
 0000:00000000  Imp  DosQueryProcAddr     (DOSCALLS.321)
 0000:00000000  Imp  FlushComBuffer       (IOCTLDEB.14)
 0000:00000000  Imp  GetBaudRates         (IOCTLDEB.9)
 0002:00000C80       hThisModule
 0000:00000000  Imp  memset               (OS2LSRTL.194)
 0000:00000000  Imp  PrfQueryProfileData  (PMSHAPI.117)
 0000:00000000  Imp  PrfQueryProfileString (PMSHAPI.115)
 0000:00000000  Imp  PrfWriteProfileData  (PMSHAPI.118)
 0000:00000000  Imp  PrfWriteProfileString (PMSHAPI.116)
 0000:00000000  Imp  SendDCB              (IOCTLDEB.19)
 0000:00000000  Imp  SetBaudRate          (IOCTLDEB.6)
 0000:00000000  Imp  SetLineCharacteristics (IOCTLDEB.5)
 0001:00000268       SPLPDENUMPORT
 0001:00000AB0       SPLPDGETPORTICON
 0001:00000592       SPLPDINITPORT
 0001:00000814       SPLPDINSTALLPORT
 0001:00000AD0       SPLPDQUERYPORT
 0001:00000EC8       SPLPDREMOVEPORT
 0001:00000BB0       SPLPDSETPORT
 0001:00001002       SPLPDTERMPORT
 0001:00000000       Spl_MessageBox
 0002:00001378       stCOMiCFG
 0000:00000000  Imp  strcat               (OS2LSRTL.241)
 0000:00000000  Imp  strcmp               (OS2LSRTL.246)
 0000:00000000  Imp  strcpy               (OS2LSRTL.262)
 0000:00000000  Imp  strlen               (OS2LSRTL.238)
 0002:0000106C       szConfigLibPath
 0002:00001170       szDriverIniPath
 0002:00001274       szDriverVersion
 0002:000013C8       szMessage
 0002:00000C7C       ulSignature
 0000:00000000  Imp  WinGetLastError      (PMWIN.753)
 0000:00000000  Imp  WinMessageBox        (PMWIN.789)
 0000:00000000  Imp  _CRT_init            (OS2LSRTL.467)
 0002:00000C74       _dllentry
 0001:00000023       _DLL_InitTerm
 0002:00000C78       _edata
 0002:000014F4       _end
 0000:00000000  Imp  _fullDump            (OS2LSRTL.469)
 0000:00000000  Imp  _sprintfieee         (OS2LSRTL.32)

  Address         Publics by Value

 0000:00000000  Imp  DosFreeModule        (DOSCALLS.322)
 0000:00000000  Imp  DosClose             (DOSCALLS.257)
 0000:00000000  Imp  DosOpen              (DOSCALLS.273)
 0000:00000000  Imp  FlushComBuffer       (IOCTLDEB.14)
 0000:00000000  Imp  SendDCB              (IOCTLDEB.19)
 0000:00000000  Imp  DosQueryProcAddr     (DOSCALLS.321)
 0000:00000000  Imp  strcpy               (OS2LSRTL.262)
 0000:00000000  Imp  strcat               (OS2LSRTL.241)
 0000:00000000  Imp  memset               (OS2LSRTL.194)
 0000:00000000  Imp  WinGetLastError      (PMWIN.753)
 0000:00000000  Imp  strlen               (OS2LSRTL.238)
 0000:00000000  Imp  strcmp               (OS2LSRTL.246)
 0000:00000000  Imp  SetBaudRate          (IOCTLDEB.6)
 0000:00000000  Imp  PrfWriteProfileString (PMSHAPI.116)
 0000:00000000  Imp  SetLineCharacteristics (IOCTLDEB.5)
 0000:00000000  Imp  PrfWriteProfileData  (PMSHAPI.118)
 0000:00000000  Imp  PrfQueryProfileData  (PMSHAPI.117)
 0000:00000000  Imp  _fullDump            (OS2LSRTL.469)
 0000:00000000  Imp  GetBaudRates         (IOCTLDEB.9)
 0000:00000000  Imp  _sprintfieee         (OS2LSRTL.32)
 0000:00000000  Imp  _CRT_init            (OS2LSRTL.467)
 0000:00000000  Imp  WinMessageBox        (PMWIN.789)
 0000:00000000  Imp  DosLoadModule        (DOSCALLS.318)
 0000:00000000  Imp  PrfQueryProfileString (PMSHAPI.115)
 0001:00000000       Spl_MessageBox
 0001:00000023       _DLL_InitTerm
 0001:00000268       SPLPDENUMPORT
 0001:00000592       SPLPDINITPORT
 0001:00000814       SPLPDINSTALLPORT
 0001:00000AB0       SPLPDGETPORTICON
 0001:00000AD0       SPLPDQUERYPORT
 0001:00000BB0       SPLPDSETPORT
 0001:00000EC8       SPLPDREMOVEPORT
 0001:00001002       SPLPDTERMPORT
 0001:00001140       CopyPortInfo
 0002:00000C74       _dllentry
 0002:00000C78       bSpoolerEnabled
 0002:00000C78       _edata
 0002:00000C7C       ulSignature
 0002:00000C80       hThisModule
 0002:00000C84       aszDeviceList
 0002:0000106C       szConfigLibPath
 0002:00001170       szDriverIniPath
 0002:00001274       szDriverVersion
 0002:00001378       stCOMiCFG
 0002:000013C8       szMessage
 0002:000014F4       _end

Program entry point at 0001:00000023
