
 NCOMDD

 Start     Length     Name                   Class
 0001:0000 10000H     RES_DATA               RESDATA
 0002:0000 05170H     RES_CODE               RESCODE
 0003:0000 03CFAH     _DATA                  DATA
 0003:3CFC 0003CH     CONST                  CONST
 0003:3D38 00000H     c_common               BSS
 0003:3D38 00000H     _BSS                   BSS
 0004:0000 027E0H     _TEXT                  CODE
 0004:27E0 002CAH     RMCode                 CODE

 Origin   Group
 0003:0   DGROUP
 0002:0   RCGROUP
 0004:0   SCGROUP
 0001:0   RDGROUP

  Address         Publics by Name

 0002:2ED9       ??0000
 0002:2EE3       ??0001
 0002:31BE       ??0002
 0002:3203       ??0003
 0002:3229       ??0004
 0002:3232       ??0005
 0002:323A       ??0006
 0002:0FDE       abort_write
 0001:00CC       abyInterruptCount
 0001:00DF       abyPath
 0002:3575       AfterDebugDelay
 0002:48D8       ASCIItoBinary
 0002:0043       AttachDDjumpTable
 0002:3A16       attempt_access
 0002:14D7       AuxStrategy
 0002:46EF       BadISAmessage
 0002:515B       BadMCAmessage
 0002:3828       begin_device_init
 0002:48A3       binac
 0002:4871       binac_10
 0002:3375       BitIDjumpTable
 0001:0206       bNoOUT2change
 0001:01E8       bOEMpresent
 0001:00DC       bOpenTrigger
 0001:00DE       bReadTrigger
 0001:01F2       bSharedInterrupts
 0001:00DD       bWriteTrigger
 0001:00C9       byLastModemOut
 0001:0040       byOEMtype
 0002:29A4       CalcBaudRate
 0002:4E7F       CalcDelay
 0002:2CFC       CalcTimeout
 0002:37B5       calculate_delay_count
 0002:2D4E       CalcWriteTimeout
 0002:4C74       ChangeINIname
 0002:50F5       CheckPOS
 0002:45DE       ClearAllInterrupts
 0002:2BBF       ClearInputHandshake
 0002:3137       clear_rd_sem
 0002:30AF       clear_rd_sem_rls
 0002:449B       clear_RX_buffer
 0002:3217       clear_wrt_sem
 0002:12D2       CloseProcess
 0001:0000       ComAux
 0001:0002       ComAuxSeg
 0002:2EA8       COM_interrupt
 0002:2E50       COM_interrupt_1
 0002:2E86       COM_interrupt_10
 0002:2E8C       COM_interrupt_11
 0002:2E92       COM_interrupt_12
 0002:2E98       COM_interrupt_13
 0002:2E9E       COM_interrupt_14
 0002:2EA4       COM_interrupt_15
 0002:2E56       COM_interrupt_2
 0002:2E5C       COM_interrupt_3
 0002:2E62       COM_interrupt_4
 0002:2E68       COM_interrupt_5
 0002:2E6E       COM_interrupt_6
 0002:2E74       COM_interrupt_7
 0002:2E7A       COM_interrupt_8
 0002:2E80       COM_interrupt_9
 0003:0AEA       Contact_msg
 0002:3723       continue_initialization
 0002:0CF5       define_buffer
 0002:4ECB       DelayFunction
 0001:0004       DevAttributes
 0001:000A       DeviceName
 0002:3330       device_eight
 0002:331E       device_five
 0002:3318       device_four
 0001:00B1       device_hlp
 0002:3306       device_one
 0002:332A       device_seven
 0002:3324       device_six
 0002:3312       device_three
 0002:330C       device_two
 0002:3336       DigiBoard_ID
 0002:3225       disable_TX_interrupt
 0002:0F8C       disable_write_interrupt
 0002:3E96       display_finals
 0000:0000  Imp  DOSCHGFILEPTR        (DOSCALLS.58)
 0000:0000  Imp  DOSCLOSE             (DOSCALLS.59)
 0000:0000  Imp  DOSIODELAYCNT        (DOSCALLS.427)
 0000:0000  Imp  DOSOPEN              (DOSCALLS.70)
 0000:0000  Imp  DOSREAD              (DOSCALLS.137)
 0000:0000  Imp  DOSSLEEP             (DOSCALLS.32)
 0000:0000  Imp  DOSWRITE             (DOSCALLS.138)
 0002:2F59       do_cleanup
 0002:0625       do_FIFO
 0002:0A55       do_read
 0002:0CCF       do_write
 0002:335C       dummy_ret
 0002:4708       dummy_return
 0001:020A       dwInputData_Return
 0001:0038       dwSerialNumber
 0001:0740       END_OF_KEEP_DATA
 0002:2FA6       error_read_loop
 0002:01A8       ExtensionJumpTable
 0002:3291       FF_is_clear_ID_entry
 0002:32A2       FF_poll_loop
 0002:3287       FF_poll_next
 0002:310A       FIFO_TO_INT_BAD
 0002:31E7       fill_loop
 0002:2B70       FlushInputBuffers
 0002:4F2C       GetCOMnumber
 0002:4A17       GetNumber
 0002:25EC       GetReceiveQueueHSspan
 0002:2601       GetReceiveQueueLen
 0002:25FD       GetXmitQueueLen
 0002:3152       get_byte
 0002:2EEB       get_modem_signals
 0002:3047       get_next_status
 0002:3AB9       got_bus_type
 0001:0065       IDCaccess
 0001:006F       IDCaccessPDS
 0001:006B       IDCaccessPM
 0001:006B       IDCaccessPMoff
 0001:006D       IDCaccessPMseg
 0001:0069       IDCaccessRDS
 0001:0065       IDCaccessRM
 0001:0071       IDCdata
 0001:0740       IDCdeviceName
 0001:0008       IDCoffset
 0002:32EC       ID_is_bits_off
 0002:32D4       ID_is_bits_on
 0002:467A       InitInterrupt
 0002:4EAC       InitTimer
 0002:3E85       init_exit
 0002:408B       init_UART
 0002:147A       InputFlush
 0002:267E       InputHandshakeDB
 0002:1458       InputStatus
 0002:334E       Interrupt_Vector
 0002:2E1B       IntRequestTable
 0002:15A4       ioctl_call_table
 0003:0A7A       ISA_bad_msg
 0000:0000  Imp  KBDCHARIN            (KBDCALLS.4)
 0002:3061       last_byte
 0002:0F43       last_out
 0002:3084       line_status_exit
 0002:0047       LocalIDCaccess
 0002:3478       Location
 0002:3DEC       lock_LID
 0003:0A08       MCA_bad_msg
 0002:2F74       modem_int
 0004:27E0       MY_DEVHELP_ATTACHDD
 0002:0000       nDDAttachFunction
 0002:39FA       non_device
 0002:3181       not_Xoff
 0002:3018       not_Xoff_rls
 0002:3B5C       no_over_flow
 0002:4702       OEM_call_table
 0002:335D       OEM_int_entry_table
 0002:3369       OEM_int_exit_table
 0002:32B8       OEM_test_int_status
 0002:11D6       open_explicit
 0003:0B6F       OS_tools_BLURB
 0003:08DA       Other_BLURB
 0003:0755       Other_ISA_bad_msg
 0003:0839       Other_MCA_bad_msg
 0002:1487       OutputFlush
 0002:1485       OutputFlushTrace
 0002:4CCD       OutputProgress
 0002:1469       OutputStatus
 0002:0753       out_FIFO_control
 0002:4A81       ParseArguments
 0002:14BC       Peek
 0002:2F31       polling_loop
 0002:2F47       poll_next
 0002:0D61       prime_write
 0002:4848       PrintString
 0002:2789       ProcessBaud
 0002:0273       ProcessFlag1
 0002:03C6       ProcessFlag2
 0002:05C5       ProcessFlag3
 0002:2870       ProcessModemSignals
 0002:2EBF       process_initial_interrupt
 0002:0CA8       pull_wrt_req_packet
 0002:3195       queue_byte
 0002:302C       queue_error_byte
 0002:0C83       queue_wrt_packet
 0002:2C57       ReadFIFO
 0002:27F3       ReadPath
 0002:26EE       ReadReceiveQueue
 0002:30D2       read_com
 0002:30CA       read_com_TO
 0002:367E       read_ini
 0002:2F1A       read_int_status_reg
 0002:30ED       read_loop
 0002:0B3D       read_sem_cleared
 0002:2F89       receive_line_status
 0002:2E3D       ReleaseInterrupt
 0002:2D74       RequestInterrupt
 0002:416A       req_interrupt_test
 0001:0012       ReservedWords
 0002:31FD       reset_timer
 0002:2F14       retest_int_status
 0002:5040       Ring0Access
 0002:2F65       send_EOI
 0002:022F       Set16650_CTS_HS
 0002:01CC       Set16650_RTS_HS
 0002:4F77       SetRing0Access
 0002:3BD7       set_DCB_defaults
 0002:04BA       set_RTS
 0002:0824       ShutDown
 0002:4480       size_found
 0001:0749       stABIOSrequestBlock
 0002:2A61       StartWriteStream
 0002:2F2B       start_polling
 0002:0EBD       start_stream
 0001:077A       stAttachDD
 0001:0230       stDeviceParms
 0002:4F3D       StorePath
 0002:0825       Strategy
 0002:14E3       Strategy1
 0002:1519       Strategy10
 0002:1579       Strategy10m
 0002:151F       Strategy11
 0002:157F       Strategy11m
 0002:1525       Strategy12
 0002:1585       Strategy12m
 0002:152B       Strategy13
 0002:158B       Strategy13m
 0002:1531       Strategy14
 0002:1591       Strategy14m
 0002:1537       Strategy15
 0002:1597       Strategy15m
 0002:153D       Strategy16
 0002:159D       Strategy16m
 0002:1543       Strategy1m
 0002:14E9       Strategy2
 0002:1549       Strategy2m
 0002:14EF       Strategy3
 0002:154F       Strategy3m
 0002:14F5       Strategy4
 0002:1555       Strategy4m
 0002:14FB       Strategy5
 0002:155B       Strategy5m
 0002:1501       Strategy6
 0002:1561       Strategy6m
 0002:1507       Strategy7
 0002:1567       Strategy7m
 0002:150D       Strategy8
 0002:156D       Strategy8m
 0002:1513       Strategy9
 0002:1573       Strategy9m
 0001:0006       StrategyOffset
 0002:07DC       strat_call_table
 0001:01F6       stStackUsage
 0001:0786       szName
 0002:4FB0       TestMCA
 0002:3FB0       TestValidHDW
 0002:43A7       test_baud_clock
 0002:032D       test_CTS
 0002:0397       test_DCD
 0002:476B       test_DigiBoard_ID
 0002:0745       test_DSR_input
 0002:2FD9       test_error_status
 0002:327C       test_FF_ID
 0002:4435       test_FIFO_size
 0002:0DDB       test_HDW_TX_HS
 0002:470A       test_ID_is_bits
 0002:425C       test_interrupts
 0002:41D9       test_interrupt_used
 0002:0F36       test_more_data
 0002:31A8       test_next
 0002:2FFB       test_null
 0002:31D8       test_queue
 0002:04F5       test_receive_Xon_Xoff
 0002:0910       test_RTS
 0002:0411       test_RTS_input_HS
 0002:03FE       test_RTS_toggle
 0002:04D7       test_transmit_Xon_Xoff
 0002:0E6D       test_TX_HS
 0002:431D       test_UART
 0002:3170       test_XHS
 0002:3007       test_XHS_rls
 0002:0948       test_Xmit
 0002:3240       test_zero_ID
 0002:08E8       Timer
 0002:08F5       timer_loop
 0002:0963       timer_loop_iteration_end
 0002:098C       TM1
 0002:09A4       TM2
 0001:01E4       ulTriggersSinceReboot
 0002:2CE5       UpdateModemHandshakeBits
 0002:3341       valid_int
 0002:2F06       vector_interrupt
 0000:0000  Imp  VIOWRTTTY            (VIOCALLS.19)
 0001:0204       wBusType
 0001:00B5       wClockRate
 0001:00B7       wClockRate2
 0001:00C3       wCOMiLoadNumber
 0001:00C7       wCOMscopeStrategy
 0001:00C1       wDeviceCount
 0001:020E       wDeviceIntOffsetTable
 0001:021E       wDeviceOffsetTable
 0001:022E       wEndOfData
 0001:0043       wIDCbuffer
 0001:0041       wIDCsignature
 0001:0208       wInterruptsUsed
 0001:01EA       wIntIDregister
 0001:00BF       wIntRegistered
 0001:01F4       wLastDeviceParmsOffset
 0001:00B9       wLastEndOfData
 0001:00CA       wMaskTimerCount
 0001:003E       wMaxDeviceCount
 0001:003C       wMaxPagerCount
 0001:00BD       wMiscControl
 0001:01EC       wOEMjumpEntry
 0001:01EE       wOEMjumpExit
 0001:01F0       wOEMjumpTest
 0001:0063       wPagerOpenCount
 0002:0BF9       WriteBlock
 0002:31AE       write_com
 0002:2621       WrtReceiveQueue
 0002:0F17       WRT_BLK
 0001:00BB       wSystemDebug
 0001:00C5       wTimerAllocCount
 0002:14DD       xAuxStrategy
 0001:001E       xComAux
 0001:0022       xDevAttributes
 0001:0028       xDeviceName
 0001:0026       xIDCoffset
 0001:0030       xReservedWords
 0001:0024       xStrategyOffset
 0002:3255       zero_is_clear_ID_entry
 0002:3266       zero_poll_loop
 0002:324B       zero_poll_next
 0003:0234       _abyCOMnumbers
 0003:0BF8       _abyFileBuffer
 0003:03A7       _abyNumber
 0003:0400       _abyString
 0003:03B1       _abyTemp
 0003:39EA       _AdapterStruct
 0003:03E2       _ADFtable
 0003:011C       _astInstallParms
 0003:03C7       _astMCAportTable
 0003:3A10       _aszFSComName
 0004:2652       _atoi
 0004:1554       _AttachDD
 0003:0076       _awGDTselectors
 0003:000C       _bABIOSpresent
 0002:08DA       _BadCommand
 0002:1670       _BadFunction
 0003:03A0       _bBadLoad
 0003:3904       _bBreakInitialization
 0003:0398       _bContinueParse
 0003:023E       _bDebugDelay
 0003:03C1       _bDelay
 0003:0012       _bDisableRM
 0003:0396       _bIntIDavailable
 0003:000A       _bIsTheFirst
 0003:039E       _bOUT1activate
 0003:023C       _bPrimaryInit
 0003:03C3       _bPrintLocation
 0002:1F2A       _BreakOff
 0002:1FA1       _BreakOn
 0003:0010       _bTimerAvailable
 0004:0CF9       _BuildLIDtable
 0003:03BB       _bValidInterrupt
 0003:03B9       _bValidIntIDreg
 0003:03BF       _bVerbose
 0003:0500       _bWaitForCR
 0003:03B7       _bWaitingKey
 0003:012E       _byIntIDregisterPreset
 0003:012F       _byLoadOEMtype
 0003:03A4       _byPortNumber
 0004:14FC       _CalcBaudRate
 0004:2A74       _CallRM
 0003:0A00       _chAdapterName
 0003:09EB       _chCompanyName
 0003:0726       _chFailedBadPath
 0003:0568       _chFailedBadVersion_1
 0003:058F       _chFailedBadVersion_2
 0003:0698       _chFailedIniCorrupt_1
 0003:06B5       _chFailedIniCorrupt_2
 0003:0608       _chFailedIniNotInit_1
 0003:0628       _chFailedIniNotInit_2
 0003:0502       _chFailedReadIni
 0003:0533       _chFailedWriteIni
 0003:0931       _chWrongOEM_1
 0003:0985       _chWrongOEM_2
 0003:09AF       _chWrongOEM_3
 0002:12A9       _Close
 0003:3B2A       _cSerialNodes
 0003:3B28       _curadn
 0002:0000       _DDAttachFunction
 0002:0816       _DeInstall
 0003:3B1C       _Device_Help
 0003:39CE       _DriverStruct
 0003:0000       _dwTimerCounter
 0002:0061       _ExtensionFunction
 0002:1F07       _ForceXOFF
 0002:1F10       _ForceXON
 0004:1FD2       _FormatConvert
 0004:15A3       _FreeLIDentry
 0002:161C       _GenIOctl
 0002:24B1       _GetComError
 0002:250C       _GetComEventInfo
 0002:2224       _GetComStatus
 0002:257D       _GetCountsSinceLast
 0004:2A9C       _GetCS
 0004:1614       _GetDeviceAddress
 0004:15BB       _GetDeviceBlockLen
 0004:15F0       _GetDeviceBlockOffset
 0004:1576       _GetDeviceInterrupt
 0002:176B       _GetFIFOinfo
 0004:00CB       _GetIniInfo
 0004:1649       _GetKernalData
 0002:5015       _GetLIDentry
 0002:216C       _GetLineCharacteristics
 0002:2070       _GetLongBaud
 0002:2375       _GetModemInSignals
 0002:230F       _GetModemOutSignals
 0002:23E0       _GetRecieveQueueCount
 0002:210D       _GetShortBaud
 0002:1681       _GetThresholds
 0002:244A       _GetTransmitQueueCount
 0002:227F       _GetXmitStatus
 0002:19F7       _get_DCB
 0003:3B30       _hAdapter
 0003:38D8       _hCom
 0003:3B2C       _hDriver
 0003:38DA       _hFile
 0003:3BB0       _hResIRQs
 0003:3B70       _hResPorts
 0003:0394       _iDataIndex
 0003:0390       _iIntIDindex
 0003:3910       _iLIDcount
 0002:34B9       _Init
 0003:3A02       _LComName
 0003:009C       _LIDtable
 0004:12C3       _LoadHeadersFromABIOStable
 0004:0000       _MemCopy
 0002:4780       _MemorySetup
 0004:2656       _memset
 0002:0FEC       _Open
 0002:102D       _OpenProcess
 0003:38DC       _pDeviceParms
 0003:38E4       _pPrevious
 0003:03A2       _PreviousLID
 0004:25B3       _PrintMessage
 0004:0035       _PrintWrongOEM
 0003:38E0       _pStart
 0003:39AC       _pszUART
 0002:09B7       _Read
 0003:0096       _Ring0Vector
 0004:28E0       _RMAllocResource
 0004:28A6       _RMCreateAdapter
 0004:2802       _RMCreateDriver
 0004:2972       _RMCreateLDev
 0004:29D8       _RMCreateSysName
 0004:291A       _RMDeallocResource
 0004:2946       _RMDestroyAdapter
 0004:287A       _RMDestroyDriver
 0004:29AC       _RMDestroyLDev
 0004:2A12       _RMDestroySysName
 0003:3B18       _RMFlags
 0004:1A8C       _RMHELP_AllocIRQ
 0004:1A0E       _RMHELP_AllocPorts
 0004:17B7       _RMHELP_CreateAdapter
 0004:16B9       _RMHELP_CreateDriver
 0004:1D7F       _RMHELP_CreateLDev
 0004:1747       _RMHELP_DestroyDriver
 0004:1EDE       _RMHELP_DestroyLDev
 0004:1F56       _RMHELP_FindPCMCIANode
 0004:1971       _RMHELP_FreeAdapter
 0004:1AFE       _RMHELP_GetPorts
 0004:1D64       _RMHELP_PortDidntInstall
 0004:1C72       _RMHELP_PortInitComplete
 0004:16A2       _RMHELP_SetDevHelp
 0003:3CEE       _RMIDCTable
 0004:2A3E       _RMKeyToHandleList
 0003:3B14       _RM_Help
 0003:3B20       _RM_Help0
 0003:3B24       _RM_Help3
 0002:1816       _SetFIFO
 0002:1B84       _SetLineCharacteristics
 0002:1A84       _SetLongBaud
 0002:1D1C       _SetModemControl
 0002:1AFF       _SetShortBaud
 0002:16F6       _SetThresholds
 0002:18DD       _set_DCB
 0004:2105       _sprintf
 0003:0392       _StackPointer
 0003:3860       _stConfigHeader
 0003:3834       _stConfigInfo
 0003:0240       _stConfigParms
 0003:389E       _stDCBheader
 0003:38EA       _stDefaultDevHeader
 0004:14D2       _StringLength
 0003:0016       _stRMparms
 0003:39C2       _sz16550UART
 0003:39B0       _sz16650UART
 0003:39BC       _sz16654UART
 0003:39B6       _sz16750UART
 0003:30F4       _szABIOSaddrInvalid_u
 0003:315E       _szABIOSaddrTaken_u
 0003:31D6       _szABIOSname_u
 0003:3230       _szABIOSowned_u
 0003:395C       _szAdapterDescription
 0003:361E       _szAllocError
 0003:303E       _szAnd
 0003:3042       _szAnd4x
 0003:3308       _szBadInstall
 0003:34A8       _szBaseAddrError_u
 0003:2E66       _szBeepChar
 0003:3066       _szBlankPad
 0003:2F06       _szClockRate_u
 0003:2ED4       _szCodeLocation_xxxxxxx
 0003:2F58       _szCOMmessage_u
 0003:2C82       _szCopyright
 0003:2E72       _szCR
 0003:2D98       _szCreditHeader
 0003:2E76       _szCRonly
 0003:2E6C       _szCR_2x
 0003:2E96       _szDebugMessage
 0003:0130       _szDefaultPath
 0003:3AB0       _szErrMsg
 0003:3074       _szExtended16550
 0003:3094       _szExtended16650
 0003:30B4       _szExtended16654
 0003:30D4       _szExtended16750
 0003:359C       _szFinalError
 0003:340C       _szHDWerror_xu
 0003:33B0       _szHDWinterruptError_uu
 0003:2E60       _szHighlightOff
 0003:2E5A       _szHighlightOn
 0003:2FAA       _szInputBuff_u
 0003:2FEA       _szInputQueue_u
 0003:3466       _szInterruptError_uu
 0003:3548       _szInterruptIDerror_u
 0003:34F6       _szInterruptLevelError_u
 0003:2EC2       _szLoadNumber_u
 0003:2BFC       _szLogoMessage_s
 0003:36A4       _szMemoryError_u
 0003:0BF8       _szMessage
 0003:2E68       _szNoise
 0003:36FC       _szNoPortAvailable
 0003:37E6       _szNoStackAvailable_uu
 0003:2FCA       _szOutputBuff_u
 0003:3008       _szOutputQueue_u
 0003:2E50       _szPath_sss
 0003:306E       _szPeriod
 0003:3286       _szRMowned_u
 0003:32DC       _szSkippedPort_u
 0003:2C54       _szSubLogo
 0003:39C8       _szUART
 0003:3034       _szUART_is
 0003:3028       _szUART_s
 0003:2F68       _szVerboseMessage_uxu
 0003:2C50       _szVerMod
 0003:2E32       _szVersion
 0003:2E40       _szVersionString_ss
 0003:2E78       _szWaitKeyMessage
 0002:1C6B       _TXbyteImmediate
 0004:2623       _vaArgAddr
 0004:25E7       _vaArgValue
 0004:25D0       _vaStart
 0003:03A5       _wBufferLength
 0003:039A       _wCurrentDevice
 0003:039C       _wDelayCount
 0003:03FE       _wDeviceCount
 0003:38E8       _wDeviceStrategy
 0003:0014       _wDriverLoadCount
 0003:2BF8       _wEndOfInitData
 0003:000E       _wInitDebugFlags
 0003:03BD       _wInitTestPort
 0003:03C5       _wInitTimerCount
 0003:012C       _wInstallTryCount
 0003:009A       _wLID
 0003:0006       _wLoadCount
 0003:0008       _wLoadFlags
 0003:0004       _wLoadNumber
 0002:0C3E       _Write
 0001:00DF       __abyPath
 0004:269E       __aFFauldiv
 0004:26C0       __aFuldiv
 0004:2720       __aFulrem
 0000:1000  Abs  __AHINCR
 0000:000C  Abs  __AHSHIFT
 0001:01E8       __bOEMpresent
 0001:01F2       __bSharedInterrupts
 0001:0040       __byOEMtype
 0004:278A       __catox
 0002:1543       __pCOMscopeStrategy
 0002:14E3       __pDeviceStrategy
 0001:077A       __stAttachDD
 0001:0000       __stAuxHeader
 0001:0230       __stDeviceParms
 0001:001E       __stDummyHeader
 0001:0786       __szName
 0001:0204       __wBusType
 0001:00C7       __wCOMscopeStrategy
 0001:022E       __wEndOfData
 0001:01EA       __wIntIDregister
 0001:003E       __wMaxDeviceCount
 0001:003C       __wMaxPagerCount
 0001:00BD       __wMiscControl
 0001:01EC       __wOEMjumpEntry
 0001:01EE       __wOEMjumpExit
 0001:01F0       __wOEMjumpTest
 0001:00BB       __wSystemDebug

  Address         Publics by Value

 0000:0000  Imp  DOSCHGFILEPTR        (DOSCALLS.58)
 0000:0000  Imp  VIOWRTTTY            (VIOCALLS.19)
 0000:0000  Imp  DOSCLOSE             (DOSCALLS.59)
 0000:0000  Imp  DOSOPEN              (DOSCALLS.70)
 0000:0000  Imp  KBDCHARIN            (KBDCALLS.4)
 0000:0000  Imp  DOSREAD              (DOSCALLS.137)
 0000:0000  Imp  DOSWRITE             (DOSCALLS.138)
 0000:0000  Imp  DOSSLEEP             (DOSCALLS.32)
 0000:0000  Imp  DOSIODELAYCNT        (DOSCALLS.427)
 0000:000C  Abs  __AHSHIFT
 0000:1000  Abs  __AHINCR
 0001:0000       ComAux
 0001:0000       __stAuxHeader
 0001:0002       ComAuxSeg
 0001:0004       DevAttributes
 0001:0006       StrategyOffset
 0001:0008       IDCoffset
 0001:000A       DeviceName
 0001:0012       ReservedWords
 0001:001E       __stDummyHeader
 0001:001E       xComAux
 0001:0022       xDevAttributes
 0001:0024       xStrategyOffset
 0001:0026       xIDCoffset
 0001:0028       xDeviceName
 0001:0030       xReservedWords
 0001:0038       dwSerialNumber
 0001:003C       wMaxPagerCount
 0001:003C       __wMaxPagerCount
 0001:003E       wMaxDeviceCount
 0001:003E       __wMaxDeviceCount
 0001:0040       byOEMtype
 0001:0040       __byOEMtype
 0001:0041       wIDCsignature
 0001:0043       wIDCbuffer
 0001:0063       wPagerOpenCount
 0001:0065       IDCaccess
 0001:0065       IDCaccessRM
 0001:0069       IDCaccessRDS
 0001:006B       IDCaccessPM
 0001:006B       IDCaccessPMoff
 0001:006D       IDCaccessPMseg
 0001:006F       IDCaccessPDS
 0001:0071       IDCdata
 0001:00B1       device_hlp
 0001:00B5       wClockRate
 0001:00B7       wClockRate2
 0001:00B9       wLastEndOfData
 0001:00BB       __wSystemDebug
 0001:00BB       wSystemDebug
 0001:00BD       __wMiscControl
 0001:00BD       wMiscControl
 0001:00BF       wIntRegistered
 0001:00C1       wDeviceCount
 0001:00C3       wCOMiLoadNumber
 0001:00C5       wTimerAllocCount
 0001:00C7       wCOMscopeStrategy
 0001:00C7       __wCOMscopeStrategy
 0001:00C9       byLastModemOut
 0001:00CA       wMaskTimerCount
 0001:00CC       abyInterruptCount
 0001:00DC       bOpenTrigger
 0001:00DD       bWriteTrigger
 0001:00DE       bReadTrigger
 0001:00DF       abyPath
 0001:00DF       __abyPath
 0001:01E4       ulTriggersSinceReboot
 0001:01E8       bOEMpresent
 0001:01E8       __bOEMpresent
 0001:01EA       __wIntIDregister
 0001:01EA       wIntIDregister
 0001:01EC       wOEMjumpEntry
 0001:01EC       __wOEMjumpEntry
 0001:01EE       wOEMjumpExit
 0001:01EE       __wOEMjumpExit
 0001:01F0       __wOEMjumpTest
 0001:01F0       wOEMjumpTest
 0001:01F2       bSharedInterrupts
 0001:01F2       __bSharedInterrupts
 0001:01F4       wLastDeviceParmsOffset
 0001:01F6       stStackUsage
 0001:0204       __wBusType
 0001:0204       wBusType
 0001:0206       bNoOUT2change
 0001:0208       wInterruptsUsed
 0001:020A       dwInputData_Return
 0001:020E       wDeviceIntOffsetTable
 0001:021E       wDeviceOffsetTable
 0001:022E       wEndOfData
 0001:022E       __wEndOfData
 0001:0230       stDeviceParms
 0001:0230       __stDeviceParms
 0001:0740       IDCdeviceName
 0001:0740       END_OF_KEEP_DATA
 0001:0749       stABIOSrequestBlock
 0001:077A       __stAttachDD
 0001:077A       stAttachDD
 0001:0786       szName
 0001:0786       __szName
 0002:0000       _DDAttachFunction
 0002:0000       nDDAttachFunction
 0002:0043       AttachDDjumpTable
 0002:0047       LocalIDCaccess
 0002:0061       _ExtensionFunction
 0002:01A8       ExtensionJumpTable
 0002:01CC       Set16650_RTS_HS
 0002:022F       Set16650_CTS_HS
 0002:0273       ProcessFlag1
 0002:032D       test_CTS
 0002:0397       test_DCD
 0002:03C6       ProcessFlag2
 0002:03FE       test_RTS_toggle
 0002:0411       test_RTS_input_HS
 0002:04BA       set_RTS
 0002:04D7       test_transmit_Xon_Xoff
 0002:04F5       test_receive_Xon_Xoff
 0002:05C5       ProcessFlag3
 0002:0625       do_FIFO
 0002:0745       test_DSR_input
 0002:0753       out_FIFO_control
 0002:07DC       strat_call_table
 0002:0816       _DeInstall
 0002:0824       ShutDown
 0002:0825       Strategy
 0002:08DA       _BadCommand
 0002:08E8       Timer
 0002:08F5       timer_loop
 0002:0910       test_RTS
 0002:0948       test_Xmit
 0002:0963       timer_loop_iteration_end
 0002:098C       TM1
 0002:09A4       TM2
 0002:09B7       _Read
 0002:0A55       do_read
 0002:0B3D       read_sem_cleared
 0002:0BF9       WriteBlock
 0002:0C3E       _Write
 0002:0C83       queue_wrt_packet
 0002:0CA8       pull_wrt_req_packet
 0002:0CCF       do_write
 0002:0CF5       define_buffer
 0002:0D61       prime_write
 0002:0DDB       test_HDW_TX_HS
 0002:0E6D       test_TX_HS
 0002:0EBD       start_stream
 0002:0F17       WRT_BLK
 0002:0F36       test_more_data
 0002:0F43       last_out
 0002:0F8C       disable_write_interrupt
 0002:0FDE       abort_write
 0002:0FEC       _Open
 0002:102D       _OpenProcess
 0002:11D6       open_explicit
 0002:12A9       _Close
 0002:12D2       CloseProcess
 0002:1458       InputStatus
 0002:1469       OutputStatus
 0002:147A       InputFlush
 0002:1485       OutputFlushTrace
 0002:1487       OutputFlush
 0002:14BC       Peek
 0002:14D7       AuxStrategy
 0002:14DD       xAuxStrategy
 0002:14E3       __pDeviceStrategy
 0002:14E3       Strategy1
 0002:14E9       Strategy2
 0002:14EF       Strategy3
 0002:14F5       Strategy4
 0002:14FB       Strategy5
 0002:1501       Strategy6
 0002:1507       Strategy7
 0002:150D       Strategy8
 0002:1513       Strategy9
 0002:1519       Strategy10
 0002:151F       Strategy11
 0002:1525       Strategy12
 0002:152B       Strategy13
 0002:1531       Strategy14
 0002:1537       Strategy15
 0002:153D       Strategy16
 0002:1543       __pCOMscopeStrategy
 0002:1543       Strategy1m
 0002:1549       Strategy2m
 0002:154F       Strategy3m
 0002:1555       Strategy4m
 0002:155B       Strategy5m
 0002:1561       Strategy6m
 0002:1567       Strategy7m
 0002:156D       Strategy8m
 0002:1573       Strategy9m
 0002:1579       Strategy10m
 0002:157F       Strategy11m
 0002:1585       Strategy12m
 0002:158B       Strategy13m
 0002:1591       Strategy14m
 0002:1597       Strategy15m
 0002:159D       Strategy16m
 0002:15A4       ioctl_call_table
 0002:161C       _GenIOctl
 0002:1670       _BadFunction
 0002:1681       _GetThresholds
 0002:16F6       _SetThresholds
 0002:176B       _GetFIFOinfo
 0002:1816       _SetFIFO
 0002:18DD       _set_DCB
 0002:19F7       _get_DCB
 0002:1A84       _SetLongBaud
 0002:1AFF       _SetShortBaud
 0002:1B84       _SetLineCharacteristics
 0002:1C6B       _TXbyteImmediate
 0002:1D1C       _SetModemControl
 0002:1F07       _ForceXOFF
 0002:1F10       _ForceXON
 0002:1F2A       _BreakOff
 0002:1FA1       _BreakOn
 0002:2070       _GetLongBaud
 0002:210D       _GetShortBaud
 0002:216C       _GetLineCharacteristics
 0002:2224       _GetComStatus
 0002:227F       _GetXmitStatus
 0002:230F       _GetModemOutSignals
 0002:2375       _GetModemInSignals
 0002:23E0       _GetRecieveQueueCount
 0002:244A       _GetTransmitQueueCount
 0002:24B1       _GetComError
 0002:250C       _GetComEventInfo
 0002:257D       _GetCountsSinceLast
 0002:25EC       GetReceiveQueueHSspan
 0002:25FD       GetXmitQueueLen
 0002:2601       GetReceiveQueueLen
 0002:2621       WrtReceiveQueue
 0002:267E       InputHandshakeDB
 0002:26EE       ReadReceiveQueue
 0002:2789       ProcessBaud
 0002:27F3       ReadPath
 0002:2870       ProcessModemSignals
 0002:29A4       CalcBaudRate
 0002:2A61       StartWriteStream
 0002:2B70       FlushInputBuffers
 0002:2BBF       ClearInputHandshake
 0002:2C57       ReadFIFO
 0002:2CE5       UpdateModemHandshakeBits
 0002:2CFC       CalcTimeout
 0002:2D4E       CalcWriteTimeout
 0002:2D74       RequestInterrupt
 0002:2E1B       IntRequestTable
 0002:2E3D       ReleaseInterrupt
 0002:2E50       COM_interrupt_1
 0002:2E56       COM_interrupt_2
 0002:2E5C       COM_interrupt_3
 0002:2E62       COM_interrupt_4
 0002:2E68       COM_interrupt_5
 0002:2E6E       COM_interrupt_6
 0002:2E74       COM_interrupt_7
 0002:2E7A       COM_interrupt_8
 0002:2E80       COM_interrupt_9
 0002:2E86       COM_interrupt_10
 0002:2E8C       COM_interrupt_11
 0002:2E92       COM_interrupt_12
 0002:2E98       COM_interrupt_13
 0002:2E9E       COM_interrupt_14
 0002:2EA4       COM_interrupt_15
 0002:2EA8       COM_interrupt
 0002:2EBF       process_initial_interrupt
 0002:2ED9       ??0000
 0002:2EE3       ??0001
 0002:2EEB       get_modem_signals
 0002:2F06       vector_interrupt
 0002:2F14       retest_int_status
 0002:2F1A       read_int_status_reg
 0002:2F2B       start_polling
 0002:2F31       polling_loop
 0002:2F47       poll_next
 0002:2F59       do_cleanup
 0002:2F65       send_EOI
 0002:2F74       modem_int
 0002:2F89       receive_line_status
 0002:2FA6       error_read_loop
 0002:2FD9       test_error_status
 0002:2FFB       test_null
 0002:3007       test_XHS_rls
 0002:3018       not_Xoff_rls
 0002:302C       queue_error_byte
 0002:3047       get_next_status
 0002:3061       last_byte
 0002:3084       line_status_exit
 0002:30AF       clear_rd_sem_rls
 0002:30CA       read_com_TO
 0002:30D2       read_com
 0002:30ED       read_loop
 0002:310A       FIFO_TO_INT_BAD
 0002:3137       clear_rd_sem
 0002:3152       get_byte
 0002:3170       test_XHS
 0002:3181       not_Xoff
 0002:3195       queue_byte
 0002:31A8       test_next
 0002:31AE       write_com
 0002:31BE       ??0002
 0002:31D8       test_queue
 0002:31E7       fill_loop
 0002:31FD       reset_timer
 0002:3203       ??0003
 0002:3217       clear_wrt_sem
 0002:3225       disable_TX_interrupt
 0002:3229       ??0004
 0002:3232       ??0005
 0002:323A       ??0006
 0002:3240       test_zero_ID
 0002:324B       zero_poll_next
 0002:3255       zero_is_clear_ID_entry
 0002:3266       zero_poll_loop
 0002:327C       test_FF_ID
 0002:3287       FF_poll_next
 0002:3291       FF_is_clear_ID_entry
 0002:32A2       FF_poll_loop
 0002:32B8       OEM_test_int_status
 0002:32D4       ID_is_bits_on
 0002:32EC       ID_is_bits_off
 0002:3306       device_one
 0002:330C       device_two
 0002:3312       device_three
 0002:3318       device_four
 0002:331E       device_five
 0002:3324       device_six
 0002:332A       device_seven
 0002:3330       device_eight
 0002:3336       DigiBoard_ID
 0002:3341       valid_int
 0002:334E       Interrupt_Vector
 0002:335C       dummy_ret
 0002:335D       OEM_int_entry_table
 0002:3369       OEM_int_exit_table
 0002:3375       BitIDjumpTable
 0002:3478       Location
 0002:34B9       _Init
 0002:3575       AfterDebugDelay
 0002:367E       read_ini
 0002:3723       continue_initialization
 0002:37B5       calculate_delay_count
 0002:3828       begin_device_init
 0002:39FA       non_device
 0002:3A16       attempt_access
 0002:3AB9       got_bus_type
 0002:3B5C       no_over_flow
 0002:3BD7       set_DCB_defaults
 0002:3DEC       lock_LID
 0002:3E85       init_exit
 0002:3E96       display_finals
 0002:3FB0       TestValidHDW
 0002:408B       init_UART
 0002:416A       req_interrupt_test
 0002:41D9       test_interrupt_used
 0002:425C       test_interrupts
 0002:431D       test_UART
 0002:43A7       test_baud_clock
 0002:4435       test_FIFO_size
 0002:4480       size_found
 0002:449B       clear_RX_buffer
 0002:45DE       ClearAllInterrupts
 0002:467A       InitInterrupt
 0002:46EF       BadISAmessage
 0002:4702       OEM_call_table
 0002:4708       dummy_return
 0002:470A       test_ID_is_bits
 0002:476B       test_DigiBoard_ID
 0002:4780       _MemorySetup
 0002:4848       PrintString
 0002:4871       binac_10
 0002:48A3       binac
 0002:48D8       ASCIItoBinary
 0002:4A17       GetNumber
 0002:4A81       ParseArguments
 0002:4C74       ChangeINIname
 0002:4CCD       OutputProgress
 0002:4E7F       CalcDelay
 0002:4EAC       InitTimer
 0002:4ECB       DelayFunction
 0002:4F2C       GetCOMnumber
 0002:4F3D       StorePath
 0002:4F77       SetRing0Access
 0002:4FB0       TestMCA
 0002:5015       _GetLIDentry
 0002:5040       Ring0Access
 0002:50F5       CheckPOS
 0002:515B       BadMCAmessage
 0003:0000       _dwTimerCounter
 0003:0004       _wLoadNumber
 0003:0006       _wLoadCount
 0003:0008       _wLoadFlags
 0003:000A       _bIsTheFirst
 0003:000C       _bABIOSpresent
 0003:000E       _wInitDebugFlags
 0003:0010       _bTimerAvailable
 0003:0012       _bDisableRM
 0003:0014       _wDriverLoadCount
 0003:0016       _stRMparms
 0003:0076       _awGDTselectors
 0003:0096       _Ring0Vector
 0003:009A       _wLID
 0003:009C       _LIDtable
 0003:011C       _astInstallParms
 0003:012C       _wInstallTryCount
 0003:012E       _byIntIDregisterPreset
 0003:012F       _byLoadOEMtype
 0003:0130       _szDefaultPath
 0003:0234       _abyCOMnumbers
 0003:023C       _bPrimaryInit
 0003:023E       _bDebugDelay
 0003:0240       _stConfigParms
 0003:0390       _iIntIDindex
 0003:0392       _StackPointer
 0003:0394       _iDataIndex
 0003:0396       _bIntIDavailable
 0003:0398       _bContinueParse
 0003:039A       _wCurrentDevice
 0003:039C       _wDelayCount
 0003:039E       _bOUT1activate
 0003:03A0       _bBadLoad
 0003:03A2       _PreviousLID
 0003:03A4       _byPortNumber
 0003:03A5       _wBufferLength
 0003:03A7       _abyNumber
 0003:03B1       _abyTemp
 0003:03B7       _bWaitingKey
 0003:03B9       _bValidIntIDreg
 0003:03BB       _bValidInterrupt
 0003:03BD       _wInitTestPort
 0003:03BF       _bVerbose
 0003:03C1       _bDelay
 0003:03C3       _bPrintLocation
 0003:03C5       _wInitTimerCount
 0003:03C7       _astMCAportTable
 0003:03E2       _ADFtable
 0003:03FE       _wDeviceCount
 0003:0400       _abyString
 0003:0500       _bWaitForCR
 0003:0502       _chFailedReadIni
 0003:0533       _chFailedWriteIni
 0003:0568       _chFailedBadVersion_1
 0003:058F       _chFailedBadVersion_2
 0003:0608       _chFailedIniNotInit_1
 0003:0628       _chFailedIniNotInit_2
 0003:0698       _chFailedIniCorrupt_1
 0003:06B5       _chFailedIniCorrupt_2
 0003:0726       _chFailedBadPath
 0003:0755       Other_ISA_bad_msg
 0003:0839       Other_MCA_bad_msg
 0003:08DA       Other_BLURB
 0003:0931       _chWrongOEM_1
 0003:0985       _chWrongOEM_2
 0003:09AF       _chWrongOEM_3
 0003:09EB       _chCompanyName
 0003:0A00       _chAdapterName
 0003:0A08       MCA_bad_msg
 0003:0A7A       ISA_bad_msg
 0003:0AEA       Contact_msg
 0003:0B6F       OS_tools_BLURB
 0003:0BF8       _szMessage
 0003:0BF8       _abyFileBuffer
 0003:2BF8       _wEndOfInitData
 0003:2BFC       _szLogoMessage_s
 0003:2C50       _szVerMod
 0003:2C54       _szSubLogo
 0003:2C82       _szCopyright
 0003:2D98       _szCreditHeader
 0003:2E32       _szVersion
 0003:2E40       _szVersionString_ss
 0003:2E50       _szPath_sss
 0003:2E5A       _szHighlightOn
 0003:2E60       _szHighlightOff
 0003:2E66       _szBeepChar
 0003:2E68       _szNoise
 0003:2E6C       _szCR_2x
 0003:2E72       _szCR
 0003:2E76       _szCRonly
 0003:2E78       _szWaitKeyMessage
 0003:2E96       _szDebugMessage
 0003:2EC2       _szLoadNumber_u
 0003:2ED4       _szCodeLocation_xxxxxxx
 0003:2F06       _szClockRate_u
 0003:2F58       _szCOMmessage_u
 0003:2F68       _szVerboseMessage_uxu
 0003:2FAA       _szInputBuff_u
 0003:2FCA       _szOutputBuff_u
 0003:2FEA       _szInputQueue_u
 0003:3008       _szOutputQueue_u
 0003:3028       _szUART_s
 0003:3034       _szUART_is
 0003:303E       _szAnd
 0003:3042       _szAnd4x
 0003:3066       _szBlankPad
 0003:306E       _szPeriod
 0003:3074       _szExtended16550
 0003:3094       _szExtended16650
 0003:30B4       _szExtended16654
 0003:30D4       _szExtended16750
 0003:30F4       _szABIOSaddrInvalid_u
 0003:315E       _szABIOSaddrTaken_u
 0003:31D6       _szABIOSname_u
 0003:3230       _szABIOSowned_u
 0003:3286       _szRMowned_u
 0003:32DC       _szSkippedPort_u
 0003:3308       _szBadInstall
 0003:33B0       _szHDWinterruptError_uu
 0003:340C       _szHDWerror_xu
 0003:3466       _szInterruptError_uu
 0003:34A8       _szBaseAddrError_u
 0003:34F6       _szInterruptLevelError_u
 0003:3548       _szInterruptIDerror_u
 0003:359C       _szFinalError
 0003:361E       _szAllocError
 0003:36A4       _szMemoryError_u
 0003:36FC       _szNoPortAvailable
 0003:37E6       _szNoStackAvailable_uu
 0003:3834       _stConfigInfo
 0003:3860       _stConfigHeader
 0003:389E       _stDCBheader
 0003:38D8       _hCom
 0003:38DA       _hFile
 0003:38DC       _pDeviceParms
 0003:38E0       _pStart
 0003:38E4       _pPrevious
 0003:38E8       _wDeviceStrategy
 0003:38EA       _stDefaultDevHeader
 0003:3904       _bBreakInitialization
 0003:3910       _iLIDcount
 0003:395C       _szAdapterDescription
 0003:39AC       _pszUART
 0003:39B0       _sz16650UART
 0003:39B6       _sz16750UART
 0003:39BC       _sz16654UART
 0003:39C2       _sz16550UART
 0003:39C8       _szUART
 0003:39CE       _DriverStruct
 0003:39EA       _AdapterStruct
 0003:3A02       _LComName
 0003:3A10       _aszFSComName
 0003:3AB0       _szErrMsg
 0003:3B14       _RM_Help
 0003:3B18       _RMFlags
 0003:3B1C       _Device_Help
 0003:3B20       _RM_Help0
 0003:3B24       _RM_Help3
 0003:3B28       _curadn
 0003:3B2A       _cSerialNodes
 0003:3B2C       _hDriver
 0003:3B30       _hAdapter
 0003:3B70       _hResPorts
 0003:3BB0       _hResIRQs
 0003:3CEE       _RMIDCTable
 0004:0000       _MemCopy
 0004:0035       _PrintWrongOEM
 0004:00CB       _GetIniInfo
 0004:0CF9       _BuildLIDtable
 0004:12C3       _LoadHeadersFromABIOStable
 0004:14D2       _StringLength
 0004:14FC       _CalcBaudRate
 0004:1554       _AttachDD
 0004:1576       _GetDeviceInterrupt
 0004:15A3       _FreeLIDentry
 0004:15BB       _GetDeviceBlockLen
 0004:15F0       _GetDeviceBlockOffset
 0004:1614       _GetDeviceAddress
 0004:1649       _GetKernalData
 0004:16A2       _RMHELP_SetDevHelp
 0004:16B9       _RMHELP_CreateDriver
 0004:1747       _RMHELP_DestroyDriver
 0004:17B7       _RMHELP_CreateAdapter
 0004:1971       _RMHELP_FreeAdapter
 0004:1A0E       _RMHELP_AllocPorts
 0004:1A8C       _RMHELP_AllocIRQ
 0004:1AFE       _RMHELP_GetPorts
 0004:1C72       _RMHELP_PortInitComplete
 0004:1D64       _RMHELP_PortDidntInstall
 0004:1D7F       _RMHELP_CreateLDev
 0004:1EDE       _RMHELP_DestroyLDev
 0004:1F56       _RMHELP_FindPCMCIANode
 0004:1FD2       _FormatConvert
 0004:2105       _sprintf
 0004:25B3       _PrintMessage
 0004:25D0       _vaStart
 0004:25E7       _vaArgValue
 0004:2623       _vaArgAddr
 0004:2652       _atoi
 0004:2656       _memset
 0004:269E       __aFFauldiv
 0004:26C0       __aFuldiv
 0004:2720       __aFulrem
 0004:278A       __catox
 0004:27E0       MY_DEVHELP_ATTACHDD
 0004:2802       _RMCreateDriver
 0004:287A       _RMDestroyDriver
 0004:28A6       _RMCreateAdapter
 0004:28E0       _RMAllocResource
 0004:291A       _RMDeallocResource
 0004:2946       _RMDestroyAdapter
 0004:2972       _RMCreateLDev
 0004:29AC       _RMDestroyLDev
 0004:29D8       _RMCreateSysName
 0004:2A12       _RMDestroySysName
 0004:2A3E       _RMKeyToHandleList
 0004:2A74       _CallRM
 0004:2A9C       _GetCS
