
 COMDDE

 Start     Length     Name                   Class
 0001:0000 10000H     RES_DATA               RESDATA
 0002:0000 0778AH     RES_CODE               RESCODE
 0003:0000 03F72H     _DATA                  DATA
 0003:3F74 0005CH     CONST                  CONST
 0003:3FD0 00000H     c_common               BSS
 0003:3FD0 00000H     _BSS                   BSS
 0004:0000 0345AH     _TEXT                  CODE
 0004:345C 00374H     RMCode                 CODE

 Origin   Group
 0003:0   DGROUP
 0002:0   RCGROUP
 0004:0   SCGROUP
 0001:0   RDGROUP

  Address         Publics by Name

 0002:0096       ??0000
 0002:00A0       ??0001
 0002:01D2       ??0002
 0002:01DB       ??0003
 0002:01C3       ??0005
 0002:0222       ??0006
 0002:022B       ??0007
 0002:0213       ??0009
 0002:0278       ??000A
 0002:0281       ??000B
 0002:0269       ??000D
 0002:02B5       ??000E
 0002:02BE       ??000F
 0002:02A6       ??0011
 0002:0341       ??0012
 0002:034A       ??0013
 0002:0332       ??0015
 0002:046B       ??0016
 0002:0474       ??0017
 0002:045C       ??0019
 0002:04A8       ??001A
 0002:04B1       ??001B
 0002:0499       ??001D
 0002:050F       ??001E
 0002:0518       ??001F
 0002:0500       ??0021
 0002:051B       ??0022
 0002:0528       ??0023
 0002:054E       ??0024
 0002:059F       ??0025
 0002:05CE       ??0026
 0002:05D7       ??0027
 0002:05DF       ??0028
 0002:120E       ??0045
 0002:1217       ??0046
 0002:11FF       ??0048
 0002:2695       abort_read
 0002:23E6       abort_write
 0001:00D4       abyInterruptCount
 0001:00E8       abyPath
 0002:57B5       adjust_last_end_of_data
 0002:4F19       AfterDebugDelay
 0002:5CAA       any_vendor
 0002:707B       ASCIItoBinary
 0002:13A8       AttachDDjumpTable
 0002:5318       attempt_access
 0002:126C       AuxStrategy
 0002:5120       begin_device_init
 0002:7046       binac
 0002:7014       binac_10
 0002:0736       BitIDjumpTable
 0002:099A       block_addr_error
 0001:0204       bNoOUT2change
 0001:00E5       bOpenTrigger
 0001:00E7       bReadTrigger
 0001:01F8       bSharedInterrupts
 0001:00E6       bWriteTrigger
 0001:0040       byAdapterType
 0001:0200       byIntStatusMask
 0001:00E4       byLastModemOut
 0001:0041       byOEMtype
 0002:206E       byte_only
 0002:4559       CalcBaudRate
 0002:7660       CalcDelay
 0002:4B3B       CalcTimeout
 0002:50B8       calculate_delay_count
 0002:4B8D       CalcWriteTimeout
 0002:2651       calc_final_count
 0002:7426       ChangeINIname
 0002:1D30       change_FIFOs
 0002:2097       check_TX_holding_register
 0002:6C61       ClearAllInterrupts
 0002:48CC       ClearInputHandshake
 0002:102E       clear_break
 0002:2041       clear_bytes_left
 0002:18BA       clear_CTS_was_flag
 0002:0D52       clear_FIFO_control
 0002:0400       clear_rd_sem
 0002:0379       clear_rd_sem_rls
 0002:268C       clear_read_in_progress_bit
 0002:0CC6       clear_RX_buffer_loop
 0002:1A30       clear_SW_RTS_HS_device_flag
 0002:23DD       clear_wrt_in_progress_bit
 0002:05B6       clear_wrt_sem
 0002:0F7C       CloseProcess
 0001:0000       ComAux
 0001:0002       ComAuxSeg
 0002:0972       COMscope_clear_done
 0002:0961       COMscope_clear_loop
 0002:0568       COMscope_fill
 0002:056F       COMscope_fill_loop
 0002:0058       COM_interrupt
 0002:0000       COM_interrupt_1
 0002:0036       COM_interrupt_10
 0002:003C       COM_interrupt_11
 0002:0042       COM_interrupt_12
 0002:0048       COM_interrupt_13
 0002:004E       COM_interrupt_14
 0002:0054       COM_interrupt_15
 0002:0006       COM_interrupt_2
 0002:000C       COM_interrupt_3
 0002:0012       COM_interrupt_4
 0002:0018       COM_interrupt_5
 0002:001E       COM_interrupt_6
 0002:0024       COM_interrupt_7
 0002:002A       COM_interrupt_8
 0002:0030       COM_interrupt_9
 0002:5008       continue_initialization
 0002:2613       conversion_error
 0002:08F5       cs_close
 0002:0700       db_valid_int
 0002:2021       define_buffer
 0002:76A6       DelayFunction
 0002:25E0       dequeue_bytes
 0001:0004       DevAttributes
 0001:000A       DeviceName
 0002:06EE       device_eight
 0002:06DC       device_five
 0002:06D6       device_four
 0001:00B2       device_hlp
 0002:06C4       device_one
 0002:06E8       device_seven
 0002:06E2       device_six
 0002:06D0       device_three
 0002:06CA       device_two
 0002:06F5       DigiBoard_ID
 0002:1870       disable_CTS_output_HS
 0002:180B       disable_DTR
 0002:6B0F       disable_FIFOs
 0002:05CA       disable_TX_interrupt
 0002:237B       disable_write_interrupt
 0002:5806       display_finals
 0002:09E1       done
 0000:0000  Imp  DOS16CHGFILEPTR      (DOSCALLS.58)
 0000:0000  Imp  DOS16CLOSE           (DOSCALLS.59)
 0000:0000  Imp  DOS16OPEN            (DOSCALLS.70)
 0000:0000  Imp  DOS16READ            (DOSCALLS.137)
 0000:0000  Imp  DOS16SLEEP           (DOSCALLS.32)
 0000:0000  Imp  DOS16WRITE           (DOSCALLS.138)
 0000:0000  Imp  DOSCLOSE             (DOSCALLS.59)
 0000:0000  Imp  DOSDEVIOCTL          (DOSCALLS.53)
 0000:0000  Imp  DOSIODELAYCNT        (DOSCALLS.427)
 0000:0000  Imp  DOSOPEN              (DOSCALLS.70)
 0002:0131       do_cleanup
 0002:09AA       do_command
 0002:564B       do_def_FIFO_depth
 0002:1CDE       do_FIFO
 0002:24E2       do_read
 0002:1FFB       do_write
 0002:1CB2       do_Write_TO
 0002:071C       dummy_vector_ret
 0001:0208       dwInputData_Return
 0001:0038       dwSerialNumber
 0001:09B0       dwTimerCounter
 0002:0E65       enable_interrupts
 0002:0EF5       enable_mdm_int
 0002:1B93       enable_receive_Xon_Xoff
 0002:199C       enable_RTS_toggle
 0002:1DAE       enable_TX_buffer
 0002:232E       enable_write_interrupts
 0002:1AC2       enable_xmit_processing
 0001:09AE       END_OF_KEEP_DATA
 0002:0986       error_out
 0002:018F       error_read_loop
 0002:0F17       exit
 0002:16EB       ExtensionJumpTable
 0002:0641       FF_is_clear_ID_entry
 0002:0656       FF_poll_loop
 0002:0637       FF_poll_next
 0002:03D7       FIFO_TO_INT_BAD
 0002:2046       fill_buffer
 0002:0558       fill_loop
 0002:4877       FlushInputBuffers
 0002:0FDD       flush_buffers
 0002:124B       flush_exit
 0002:7706       GetCOMnumber
 0002:71BA       GetNumber
 0002:6260       GetOEMadapter
 0002:5DD4       GetPCIdata
 0002:3FDC       GetReceiveQueueHSspan
 0002:400E       GetReceiveQueueLen
 0002:5F44       GetSerialPCIAdapter
 0002:4008       GetXmitQueueLen
 0002:6A72       get_baud_multiplier
 0002:041D       get_byte
 0002:4F8B       get_configuration
 0002:00A6       get_modem_signals
 0002:02E3       get_next_status
 0002:5B71       got_any_PCI_adapter
 0002:0CB0       got_baud
 0002:5FA8       got_PCI_adapter
 0002:0089       HACK_TX_int
 0002:6C59       HDW_test_exit
 0002:5D74       HookPCI_BIOS
 0001:0066       IDCaccess
 0001:0070       IDCaccessPDS
 0001:006C       IDCaccessPM
 0001:006C       IDCaccessPMoff
 0001:006E       IDCaccessPMseg
 0001:006A       IDCaccessRDS
 0001:0066       IDCaccessRM
 0001:0072       IDCdata
 0001:09B4       IDCdeviceName
 0001:0008       IDCoffset
 0002:06A8       ID_is_bits_off
 0002:068E       ID_is_bits_on
 0002:1ECA       infinite_TO
 0002:215B       initiate_stream
 0002:6D04       InitInterrupt
 0002:768D       InitTimer
 0002:57F5       init_exit
 0002:68C0       init_interrupt_test_point
 0002:0B82       init_port
 0002:667E       init_UART
 0002:11B6       InputFlush
 0002:4124       InputHandshakeDB
 0002:1194       InputStatus
 0002:070E       Interrupt_Vector
 0002:4C5A       IntRequestTable
 0002:26A4       ioctl_call_table
 0002:09D4       is_error
 0000:0000  Imp  KBDCHARIN            (KBDCALLS.4)
 0002:02FD       last_byte
 0002:2371       last_out
 0002:1DDC       limit_RX_FIFO
 0002:1DCB       limit_TX_FIFO
 0002:034A       line_status_exit
 0002:13B4       LocalIDCaccess
 0002:4DF4       Location
 0002:571F       lock_LID
 0002:014C       modem_int
 0002:2065       move_bytes
 0002:18FE       move_Flag1
 0002:1C5C       move_Flag2
 0002:1E7D       move_Flag3
 0004:345C       MY_DEVHELP_ATTACHDD
 0002:1338       nDDAttachFunction
 0002:52FC       non_device
 0002:2558       normal
 0002:0CAD       normalize_baud
 0002:0C50       normal_flag3_init
 0002:255D       normal_loop
 0002:0B39       normal_open
 0002:65AA       not_UART_1
 0002:660A       not_UART_2
 0002:6672       not_UART_3
 0002:6960       not_UART_4
 0002:6984       not_UART_5
 0002:047B       not_Xoff
 0002:0288       not_Xoff_rls
 0002:18B1       no_ACE_CTS_HDW_HS
 0002:1266       no_byte_in_queue
 0002:0589       no_COMscope_wrap
 0002:0D49       no_FIFO
 0002:5FFE       no_PCI_adapter
 0002:241B       no_rd_lock_up
 0002:2546       no_wait_loop
 0002:1F41       no_wrt_lock_up
 0002:071E       OEM_int_entry_table
 0002:072A       OEM_int_exit_table
 0002:066F       OEM_test_int_status
 0002:08DA       open_CS
 0002:0BE1       open_exit
 0002:0D91       open_explicit
 0002:0B40       open_general_fail
 0002:0B2C       open_pager
 0002:1217       OutputFlush
 0002:11EB       OutputFlushTrace
 0002:747F       OutputProgress
 0002:11A5       OutputStatus
 0002:1DE2       out_FIFO_control
 0002:0EFB       out_int_enable_reg
 0002:7224       ParseArguments
 0002:64F6       PCIhdwQuickTest
 0002:124D       Peek
 0002:44C8       PMS_clear_FIFO
 0002:4414       PMS_get_byte
 0002:446C       PMS_not_Xoff
 0002:4556       PMS_process_end
 0002:44AD       PMS_queue_byte
 0002:4407       PMS_read_loop
 0002:44D5       PMS_reset_DSR_input_HS_flag
 0002:44D4       PMS_reset_DSR_input_HS_flag_pop
 0002:4511       PMS_set_CTS_output_HS_flag
 0002:44DC       PMS_set_DSR_input_HS_flag
 0002:43DE       PMS_store_event
 0002:44E1       PMS_test_CTS_output_HS
 0002:43D6       PMS_test_DCD
 0002:4536       PMS_test_DCD_output_HS
 0002:43E1       PMS_test_DSR_input_HS
 0002:4516       PMS_test_DSR_output_HS
 0002:44C2       PMS_test_next
 0002:0106       polling_loop
 0002:011F       poll_next
 0002:208C       prime_write
 0002:6FEB       PrintString
 0002:42BF       ProcessBaud
 0002:179B       ProcessFlag1
 0002:1909       ProcessFlag2
 0002:1C69       PROCESSFLAG3
 0002:4396       ProcessModemSignals
 0002:006F       process_initial_interrupt
 0002:00CC       process_modem_signals
 0002:19E4       process_RTS_SW_HS
 0002:24BB       pull_req_packet
 0002:1FD4       pull_wrt_req_packet
 0002:4430       PWS_test_XHS
 0002:04BB       queue_byte
 0002:02C8       queue_error_byte
 0002:2484       queue_packet
 0002:24A1       queue_wait_block
 0002:1FAD       queue_wrt_packet
 0002:4285       rd_no_DTR_HS
 0002:423E       rd_send_Xon
 0002:427D       rd_test_DTR
 0002:426B       rd_test_hdw_HS
 0002:4F8B       ReadConfigFile
 0002:49F4       ReadFIFO
 0002:4319       ReadPath
 0002:41CE       ReadReceiveQueue
 0002:257F       read_block
 0002:039E       read_com
 0002:0396       read_com_TO
 0002:2657       read_exit
 0002:247C       read_general_fail
 0002:00E5       read_int_status_reg
 0002:03BA       read_loop
 0002:2570       read_return
 0002:25CD       read_sem_cleared
 0002:262B       read_timed_out
 0002:0172       receive_line_status
 0002:4C7C       ReleaseInterrupt
 0002:4BB3       RequestInterrupt
 0002:677A       req_interrupt_test
 0002:25F8       reread_loop
 0001:0012       ReservedWords
 0002:0DE2       reset_CTS_output_HS_flag
 0002:0E60       reset_DCD_output_HS_flag
 0002:0E36       reset_DSR_input_HS_flag
 0002:0E4B       reset_DSR_output_HS_flag
 0002:1A76       reset_RTS
 0002:05A2       reset_timer
 0002:1B7D       reset_waiting_to_transmit_Xon
 0002:00CF       restore_AL
 0002:00DF       retest_int_status
 0002:4ABF       RF_queue_byte
 0002:4A25       RF_read_loop
 0002:4ACC       RF_test_next
 0002:4A43       RF_test_XHS
 0002:59AC       Ring0Access
 0002:013D       send_EOI
 0002:1099       send_final_Xon
 0002:1757       Set16650_CTS_HS
 0002:1710       Set16650_RTS_HS
 0002:5E08       SetPCIdata
 0002:7751       SetRing0Access
 0002:1D02       setup_FIFOs
 0002:0D09       setup_thresholds
 0002:1D8D       set_16550
 0002:0D3E       set_16550_threshold
 0002:1E2C       set_16750_to_64_byte_FIFOs
 0002:6AA6       set_baud_multiplier
 0002:1009       set_clear_modem_signals
 0002:09A0       set_command
 0002:18EE       set_DCD_output_HS_flag
 0002:1028       set_delay
 0002:1D95       set_depth
 0002:1848       set_DSR_input_HS_flag
 0002:18CE       set_DSR_output_HS_flag
 0002:17EF       set_DTR_HS_flag
 0002:57BC       set_end_of_data_segment
 0002:1E68       set_FCR
 0002:1D46       set_FIFO_size
 0002:1B73       set_immediate_byte
 0002:252F       set_read_loop
 0002:1C4D       set_receive_Xoff_in_progress
 0002:1A29       set_RTS_HS_flag
 0002:6728       set_test_BAUD
 0002:54DC       set_thresholds
 0002:1DA1       set_up_APO
 0002:0B20       sharing_error
 0002:0880       ShutDown
 0002:6B01       size_found
 0001:09BD       stABIOSrequestBlock
 0002:4699       StartWriteStream
 0002:0100       start_polling
 0002:2282       start_stream
 0001:09EE       stAttachDD
 0001:022E       stDeviceParms
 0002:7717       StorePath
 0002:1C43       store_immediate_byte
 0002:1260       store_peek
 0002:0D41       store_threshold
 0002:0599       store_wrt_pointer
 0002:0881       Strategy
 0002:1278       Strategy1
 0002:12AE       Strategy10
 0002:130E       Strategy10m
 0002:12B4       Strategy11
 0002:1314       Strategy11m
 0002:12BA       Strategy12
 0002:131A       Strategy12m
 0002:12C0       Strategy13
 0002:1320       Strategy13m
 0002:12C6       Strategy14
 0002:1326       Strategy14m
 0002:12CC       Strategy15
 0002:132C       Strategy15m
 0002:12D2       Strategy16
 0002:1332       Strategy16m
 0002:12D8       Strategy1m
 0002:127E       Strategy2
 0002:12DE       Strategy2m
 0002:1284       Strategy3
 0002:12E4       Strategy3m
 0002:128A       Strategy4
 0002:12EA       Strategy4m
 0002:1290       Strategy5
 0002:12F0       Strategy5m
 0002:1296       Strategy6
 0002:12F6       Strategy6m
 0002:129C       Strategy7
 0002:12FC       Strategy7m
 0002:12A2       Strategy8
 0002:1302       Strategy8m
 0002:12A8       Strategy9
 0002:1308       Strategy9m
 0001:0006       StrategyOffset
 0002:0838       strat_call_table
 0001:0A04       stStackUsage
 0002:47A7       SWS_clear_write_sem
 0002:46BA       SWS_enable_TX_interrupt
 0002:4861       SWS_enable_write_interrupts
 0002:46D0       SWS_setup_fill
 0002:479E       SWS_test_semaphore
 0001:09FA       szName
 0002:591C       TestMCA
 0002:6524       TestValidHDW
 0002:1D64       test_16654
 0002:0D32       test_16654_threshold
 0002:1D75       test_16750
 0002:0D26       test_16750_threshold
 0002:0AE8       test_8_15
 0002:1D3F       test_APO
 0002:699D       test_baud_clock
 0002:098C       test_COM_command
 0002:08F0       test_CS_close
 0002:08CC       test_CS_open
 0002:0932       test_CS_read
 0002:057A       test_CS_wrap
 0002:093D       test_CS_write
 0002:184D       test_CTS_proc
 0002:0E50       test_DCD
 0002:18DE       test_DCD_proc
 0002:00C8       test_delta_bits
 0002:6E40       test_DigiBoard_ID
 0002:1814       test_DSR_in
 0002:1DD4       test_DSR_input
 0002:0E18       test_DSR_input_HS
 0002:0E3B       test_DSR_out
 0002:18BE       test_DSR_out_HS
 0002:17DC       test_DSR_Xoff_threshold
 0002:17F6       test_DTR_enable
 0002:01F0       test_error_status
 0002:0D9E       test_explicit_RTS
 0002:0628       test_FF_ID
 0002:6AAE       test_FIFO_size
 0002:1948       test_handshake
 0002:1880       test_HDW_HS
 0002:20DD       test_HDW_TX_HS
 0002:20EA       test_HDW_TX_HS_loop
 0002:6D7F       test_ID_is_bits
 0002:1DCE       test_input_HS
 0002:686C       test_interrupts
 0002:67E9       test_interrupt_used
 0002:2364       test_more_data
 0002:04CE       test_next
 0002:023F       test_null
 0002:0DC2       test_open_CTS
 0002:0944       test_OS_tools_command
 0002:0B32       test_pager_open
 0002:0535       test_queue
 0002:0975       test_read
 0002:24D3       test_read_flushed
 0002:245B       test_read_packet_depth
 0002:244C       test_read_was_flushed
 0002:1AC7       test_receive_Xon_Xoff
 0002:2615       test_reentry
 0002:0A24       test_RTS
 0002:1A16       test_RTS_HS_threshold
 0002:19A9       test_RTS_input_HS
 0002:195B       test_RTS_toggle
 0002:0AA7       test_stream_to_start
 0002:20C9       test_timeout
 0002:1893       test_TI_ACE_CTS_HS
 0002:1A4D       test_TI_ACE_RTS_HS
 0002:1AA6       test_transmit_Xon_Xoff
 0002:1077       test_TX_hold_loop
 0002:2200       test_TX_HS
 0002:220F       test_TX_HS_loop
 0002:1936       test_TX_waiting
 0002:68FE       test_UART
 0002:1F75       test_write_flushed
 0002:1FEC       test_wrt_flushed
 0002:1F84       test_wrt_packet_depth
 0002:043F       test_XHS
 0002:024C       test_XHS_rls
 0002:0A8A       test_Xmit
 0002:05E5       test_zero_ID
 0002:09FA       Timer
 0002:0B00       timer_exit
 0002:0A07       timer_loop
 0002:0AB1       timer_loop_iteration_end
 0002:0AAE       timer_start_stream
 0002:0ADC       TM1
 0002:0AF4       TM2
 0001:01EC       ulTriggersSinceReboot
 0002:206F       unconvert
 0002:2579       unconvert_and_block
 0002:4AF1       UpdateModemHandshakeBits
 0002:00D1       vector_interrupt
 0002:251A       verify_and_block
 0000:0000  Imp  VIO16WRTTTY          (VIOCALLS.19)
 0000:0000  Imp  VIOWRTTTY            (VIOCALLS.19)
 0002:1FBB       wait_block
 0002:20AE       wait_Tx_empty_loop
 0001:0202       wBusType
 0001:00B6       wClockRate
 0001:00B8       wClockRate2
 0001:00CC       wCOMiLoadNumber
 0001:00D0       wCOMscopeStrategy
 0001:00BE       wCurrentTarget
 0001:00CA       wDeviceCount
 0001:020C       wDeviceIntOffsetTable
 0001:021C       wDeviceOffsetTable
 0001:022C       wEndOfData
 0001:0044       wIDCbuffer
 0001:0042       wIDCsignature
 0001:09AE       wInitTimerCount
 0001:0206       wInterruptsUsed
 0001:01F0       wIntIDregister
 0001:00C8       wIntRegistered
 0001:01FE       wLastDeviceParmsOffset
 0001:00BA       wLastEndOfData
 0001:00BC       wLastFunctionCall
 0001:00D2       wMaskTimerCount
 0001:003E       wMaxDeviceCount
 0001:003C       wMaxPagerCount
 0001:00C2       wMiscControl
 0001:01F2       wOEMjumpEntry
 0001:01F4       wOEMjumpExit
 0001:01F6       wOEMjumpTest
 0001:0064       wPagerOpenCount
 0001:01FC       wPCIdevice
 0001:01FA       wPCIvendor
 0002:1E8C       WriteBlock
 0002:04D4       write_com
 0002:23A8       write_exit
 0002:1F39       write_fault
 0002:574B       write_installed_message
 0002:4039       WrtReceiveQueue
 0002:2344       WRT_BLK
 0002:1FA5       wrt_general_fail
 0002:4195       wrt_modem_ctl_out
 0002:4096       wrt_place_byte
 0002:4107       wrt_receive_queue_not_full
 0002:4149       wrt_send_Xoff
 0002:418D       wrt_test_DTR
 0002:417B       wrt_test_hdw_HS
 0002:40ED       wrt_test_place_wrap
 0001:00C0       wSystemDebug
 0001:00CE       wTimerAllocCount
 0001:00C6       wWriteCount
 0001:00C4       wWriteCountStart
 0002:1272       xAuxStrategy
 0001:001E       xComAux
 0001:0022       xDevAttributes
 0001:0028       xDeviceName
 0001:0026       xIDCoffset
 0001:0030       xReservedWords
 0001:0024       xStrategyOffset
 0002:05FC       zero_is_clear_ID_entry
 0002:060F       zero_poll_loop
 0002:05F2       zero_poll_next
 0003:0287       _abyCOMnumbers
 0003:0AA6       _abyFileBuffer
 0003:03FE       _abyNumber
 0003:0513       _abyString
 0003:0408       _abyTemp
 0003:000B       _Action
 0003:2B7C       _AdapterStruct
 0003:050D       _ADFtable
 0003:016F       _astInstallParms
 0003:0420       _astMCAportTable
 0003:2BA2       _aszFSComName
 0004:32CC       _atoi
 0004:00C0       _AttachDD
 0003:00C9       _awGDTselectors
 0003:3F12       _awPorts
 0003:0039       _bABIOSpresent
 0002:09EC       _BadCommand
 0002:27A1       _BadFunction
 0003:03F7       _bBadLoad
 0003:3F10       _bBreakInitialization
 0003:03ED       _bContinueParse
 0003:0291       _bDebugDelay
 0003:041A       _bDelay
 0003:0059       _bDisableRM
 0003:03EB       _bIntIDavailable
 0003:0037       _bIsTheFirst
 0003:03F5       _bOUT1activate
 0003:0041       _bPCI_BIOSpresent
 0003:003F       _bPnPcapable
 0003:3EE0       _bPrevErrorMsg
 0003:028F       _bPrimaryInit
 0003:041C       _bPrintLocation
 0002:32D1       _BreakOff
 0002:3389       _BreakOn
 0003:03E3       _bSeparateIDreg
 0003:0057       _bTimerAvailable
 0004:2AF2       _BuildLIDtable
 0003:0053       _bUseDDdataSegment
 0003:0416       _bUsesSixteenAddrLines
 0003:0412       _bValidInterrupt
 0003:0410       _bValidIntIDreg
 0003:0418       _bVerbose
 0003:0613       _bWaitForCR
 0003:040E       _bWaitingKey
 0003:003C       _byInitIntANDmask
 0003:003B       _byInitIntORmask
 0003:0181       _byIntIDregisterPreset
 0003:0182       _byLoadAdapterType
 0003:003D       _byNextPCIslot
 0003:03FB       _byPortNumber
 0004:002A       _CalcBaudRate
 0004:379A       _CallRM
 0003:0839       _chFailedBadPath
 0003:067B       _chFailedBadVersion_1
 0003:06A2       _chFailedBadVersion_2
 0003:07AB       _chFailedIniCorrupt_1
 0003:07C8       _chFailedIniCorrupt_2
 0003:071B       _chFailedIniNotInit_1
 0003:073B       _chFailedIniNotInit_2
 0003:0615       _chFailedReadIni
 0003:0646       _chFailedWriteIni
 0003:0902       _chPCIBadIRQ
 0003:099A       _chPCIMissing
 0003:0868       _chPCI_LoadOrder_1
 0003:08B2       _chPCI_LoadOrder_2
 0003:094D       _chTooManyPCIadapters
 0003:0465       _ClassCodeTable
 0002:0F18       _Close
 0002:3D1C       _COMscopeControl
 0002:4D00       _COMscopeDevIOCtl
 0002:4C8F       _COMscopeReadWrite
 0003:044D       _ConnectechPCIadapterTable
 0003:2CBC       _cSerialNodes
 0002:1338       _DDAttachFunction
 0002:0872       _DeInstall
 0002:4DBE       _DevHelp_GetDOSVar
 0003:2CB0       _Device_Help
 0003:2B60       _DriverStruct
 0003:0043       _dwPCIvector
 0002:13CE       _ExtensionFunction
 0002:648B       _FindBlueHeat
 0002:63B5       _FindGlobetekPCI
 0002:6343       _FindMoxaPCI
 0002:62A2       _FindOEMAdapter
 0002:5D24       _FindPCISerialAdapter
 0002:6420       _FindSealevelPCI
 0002:3284       _ForceXOFF
 0002:32A1       _ForceXON
 0004:122C       _FormatConvert
 0004:010F       _FreeLIDentry
 0002:2722       _GenIOctl
 0002:5B00       _GetAllSerialPCIAdapters
 0002:3A35       _GetComError
 0002:3AA3       _GetComEventInfo
 0002:3B36       _GetComFlags
 0002:3BE3       _GetCOMscopeData
 0002:36FC       _GetComStatus
 0002:3F56       _GetCountsSinceLast
 0004:37C2       _GetCS
 0004:0180       _GetDeviceAddress
 0004:0127       _GetDeviceBlockLen
 0004:015C       _GetDeviceBlockOffset
 0002:3E8D       _GetDeviceData
 0004:00E2       _GetDeviceInterrupt
 0002:28F4       _GetFIFOinfo
 0004:1905       _GetIniInfo
 0004:01B5       _GetKernalData
 0002:5981       _GetLIDentry
 0002:361E       _GetLineCharacteristics
 0002:34C3       _GetLongBaud
 0002:388C       _GetModemInSignals
 0002:3813       _GetModemOutSignals
 0002:5E41       _GetPCIAdapter
 0002:3919       _GetReceiveQueueCount
 0002:3595       _GetShortBaud
 0002:27DC       _GetThresholds
 0002:39AF       _GetTransmitQueueCount
 0002:376C       _GetXmitStatus
 0002:2C43       _get_DCB
 0003:0457       _GlobetekPCIadapterTable
 0003:2CC2       _hAdapter
 0003:3EE2       _hCom
 0003:2CBE       _hDriver
 0003:3EE4       _hFile
 0003:2D4A       _hResIRQs
 0003:2D06       _hResPorts
 0003:03E9       _iDataIndex
 0003:03E5       _iIntIDindex
 0003:3F50       _iLIDcount
 0002:4E35       _Init
 0003:2B94       _LComName
 0003:00EF       _LIDtable
 0002:6203       _LoadBlueHeatPCI
 0002:610C       _LoadGlobetekPCI
 0004:30BE       _LoadHeadersFromABIOStable
 0002:6004       _LoadMoxaPCI
 0002:5BD8       _LoadPCIAdapter
 0002:6182       _LoadSealevelPCI
 0002:6096       _LoadSunixPCI
 0004:0080       _MakeCOMscopeName
 0004:18D0       _MemCopy
 0002:6E54       _MemorySetup
 0004:32D0       _memset
 0003:045F       _MoxaPCIadapterTable
 0003:0009       _OEMHLPhandle
 0003:0000       _OEMHLPname
 0002:0B07       _Open
 0002:0BE3       _OpenProcess
 0003:043B       _PCItable
 0003:3EE6       _pDeviceParms
 0003:3EEE       _pPrevious
 0003:03F9       _PreviousLID
 0004:1831       _PrintMessage
 0003:3EEA       _pStart
 0003:2B38       _pszUART
 0002:23F4       _Read
 0003:00E9       _Ring0Vector
 0004:355E       _RMAllocResource
 0004:3762       _RMConvertID
 0004:3524       _RMCreateAdapter
 0004:347E       _RMCreateDriver
 0004:35F0       _RMCreateLDev
 0004:3656       _RMCreateSysName
 0004:3598       _RMDeallocResource
 0004:35C4       _RMDestroyAdapter
 0004:34F8       _RMDestroyDriver
 0004:362A       _RMDestroyLDev
 0004:3690       _RMDestroySysName
 0004:372A       _RMDevIDToHandleList
 0003:2CAC       _RMFlags
 0004:36F2       _RMGetNodeInfo
 0004:077B       _RMHELP_AllocIRQ
 0004:0624       _RMHELP_AllocPorts
 0004:06C5       _RMHELP_AllocStatusPort
 0004:02F1       _RMHELP_CreateAdapter
 0004:0225       _RMHELP_CreateDriver
 0004:0B4C       _RMHELP_CreateLDev
 0004:04AB       _RMHELP_CreateStatusPort
 0004:029F       _RMHELP_DestroyDriver
 0004:0CAB       _RMHELP_DestroyLDev
 0004:1133       _RMHELP_FindDetected
 0004:0E15       _RMHELP_FindDetectedRes
 0004:0D23       _RMHELP_FindPCMCIANode
 0004:0587       _RMHELP_FreeAdapter
 0004:07FD       _RMHELP_GetPorts
 0004:0952       _RMHELP_GetStatusPort
 0004:0D9E       _RMHELP_HasPNPCaps
 0004:0B31       _RMHELP_PortDidntInstall
 0004:09B1       _RMHELP_PortInitComplete
 0004:020E       _RMHELP_SetDevHelp
 0004:0AB2       _RMHELP_StatusPortInitComplete
 0004:0FAB       _RMHELP_UpdateComInfo
 0003:3F66       _RMIDCTable
 0004:36BC       _RMKeyToHandleList
 0003:2CA8       _RM_Help
 0003:2CB4       _RM_Help0
 0003:2CB8       _RM_Help3
 0003:043D       _SealevelPCIadapterTable
 0002:29B3       _SetFIFO
 0002:2E33       _SetLineCharacteristics
 0002:2CE3       _SetLongBaud
 0002:3054       _SetModemControl
 0002:2D82       _SetShortBaud
 0002:2868       _SetThresholds
 0002:2A91       _set_DCB
 0004:135F       _sprintf
 0003:03E7       _StackPointer
 0003:3E68       _stConfigHeader
 0003:3E3C       _stConfigInfo
 0003:0293       _stConfigParms
 0003:3EA6       _stDCBheader
 0003:3EF6       _stDefaultDevHeader
 0003:04DD       _stPCIadapterHold
 0003:04AD       _stPCIadapterTable
 0003:000D       _stPCIdata_BIOSinfo
 0003:0012       _stPCIdata_Config
 0003:0017       _stPCIdata_Device
 0003:001A       _stPCIparam_ClassCode
 0003:0020       _stPCIparam_Config
 0003:0029       _stPCIparam_Device
 0004:0000       _StringLength
 0003:005D       _stRMparms
 0003:2B4E       _sz16550UART
 0003:2B3C       _sz16650UART
 0003:2B48       _sz16654UART
 0003:2B42       _sz16750UART
 0003:2B54       _sz16950UART
 0003:362E       _szABIOSaddrInvalid_u
 0003:3698       _szABIOSaddrTaken_u
 0003:3710       _szABIOSname_u
 0003:376A       _szABIOSowned_u
 0003:2AE8       _szAdapterDescription
 0003:3B9C       _szAllocBuffers_ululu
 0003:3C26       _szAllocError
 0003:34C8       _szAnd
 0003:3514       _szAnd12x
 0003:353A       _szAnd16x
 0003:34CC       _szAnd4x
 0003:34F0       _szAnd8x
 0003:3842       _szBadInstall
 0003:3A26       _szBaseAddrError_u
 0003:3162       _szBeepChar
 0003:3560       _szBlankPad
 0003:31F0       _szClockRate_u
 0003:31BE       _szCodeLocation_xxxxxxx
 0003:33E0       _szCOMmessage_u
 0003:2FE6       _szCopyright
 0003:316E       _szCR
 0003:30B8       _szCreditHeader
 0003:3172       _szCRonly
 0003:3168       _szCR_2x
 0003:3192       _szDebugMessage
 0003:0183       _szDefaultPath
 0003:2C42       _szErrMsg
 0003:3242       _szEvaluationMsg
 0003:356E       _szExtended16550
 0003:3588       _szExtended16650
 0003:35A8       _szExtended16654
 0003:35C8       _szExtended16750
 0003:35E8       _szExtended16950
 0003:360A       _szExtendedTI16550C
 0003:3B1C       _szFinalError
 0003:398A       _szHDWerror_xu
 0003:38EA       _szHDWinterruptError_uu
 0003:315C       _szHighlightOff
 0003:3156       _szHighlightOn
 0003:3432       _szInputBuff_lu
 0003:3474       _szInputQueue_u
 0003:39E4       _szInterruptError_uu
 0003:3AC6       _szInterruptIDerror_u
 0003:3A74       _szInterruptLevelError_u
 0003:2F3C       _szLogoMessage_s
 0003:3CAC       _szMemoryError_u
 0003:09DE       _szMessage
 0003:3164       _szNoise
 0003:3D04       _szNoPortAvailable
 0003:3DEE       _szNoStackAvailable_uu
 0003:3452       _szOutputBuff_lu
 0003:3492       _szOutputQueue_u
 0003:314C       _szPath_sss
 0003:3946       _szPCIerror_u
 0003:3568       _szPeriod
 0003:37C0       _szRMowned_u
 0003:3816       _szSkippedPort_u
 0003:2F90       _szSubLogo
 0003:2B5A       _szUART
 0003:34BE       _szUART_is
 0003:34B2       _szUART_s
 0003:33F0       _szVerboseMessage_uxu
 0003:2FE4       _szVerMod
 0003:312E       _szVersion
 0003:313C       _szVersionString_ss
 0003:3174       _szWaitKeyMessage
 0002:2F2D       _TXbyteImmediate
 0003:0047       _ulAvailableBufferSpace
 0003:004B       _ulRequiredBufferSpace
 0003:004F       _ulWriteBufferSpace
 0003:2CA6       _usIDregIndex
 0004:189F       _vaArgAddr
 0004:1863       _vaArgValue
 0004:184C       _vaStart
 0004:2902       _VerifyABIOSdefinitions
 0003:03F1       _wBaseDevice
 0003:03FC       _wBufferLength
 0003:3EF4       _wCOMscopeStrategy
 0003:03EF       _wCurrentDevice
 0003:03F3       _wDelayCount
 0003:050F       _wDeviceCount
 0003:3EF2       _wDeviceStrategy
 0003:005B       _wDriverLoadCount
 0003:2AA6       _wEndOfInitData
 0003:0055       _wInitDebugFlags
 0003:0414       _wInitTestPort
 0003:017F       _wInstallTryCount
 0003:00ED       _wLID
 0003:0031       _wLoadCount
 0003:0035       _wLoadFlags
 0003:002F       _wLoadNumber
 0003:0511       _wPCIadapterCount
 0003:041E       _wPCIcount
 0002:1EFF       _Write
 0003:0033       _wSelectorCount
 0003:003E       _xBaudMultiplier
 0001:00E8       __abyPath
 0004:3318       __aFFauldiv
 0004:333A       __aFuldiv
 0004:339A       __aFulrem
 0000:1000  Abs  __AHINCR
 0000:000C  Abs  __AHSHIFT
 0001:01F8       __bSharedInterrupts
 0001:0040       __byAdapterType
 0001:0041       __byOEMtype
 0004:3404       __catox
 0002:12D8       __pCOMscopeStrategy
 0002:1278       __pDeviceStrategy
 0001:09EE       __stAttachDD
 0001:0000       __stAuxHeader
 0001:022E       __stDeviceParms
 0001:001E       __stDummyHeader
 0001:09FA       __szName
 0001:0202       __wBusType
 0001:00D0       __wCOMscopeStrategy
 0001:022C       __wEndOfData
 0001:01F0       __wIntIDregister
 0001:003E       __wMaxDeviceCount
 0001:003C       __wMaxPagerCount
 0001:00C2       __wMiscControl
 0001:01F2       __wOEMjumpEntry
 0001:01F4       __wOEMjumpExit
 0001:01F6       __wOEMjumpTest
 0001:01FC       __wPCIdevice
 0001:01FA       __wPCIvendor
 0001:00C0       __wSystemDebug

  Address         Publics by Value

 0000:0000  Imp  DOS16CLOSE           (DOSCALLS.59)
 0000:0000  Imp  VIO16WRTTTY          (VIOCALLS.19)
 0000:0000  Imp  DOS16WRITE           (DOSCALLS.138)
 0000:0000  Imp  DOS16SLEEP           (DOSCALLS.32)
 0000:0000  Imp  DOS16OPEN            (DOSCALLS.70)
 0000:0000  Imp  DOS16CHGFILEPTR      (DOSCALLS.58)
 0000:0000  Imp  DOSIODELAYCNT        (DOSCALLS.427)
 0000:0000  Imp  VIOWRTTTY            (VIOCALLS.19)
 0000:0000  Imp  DOSCLOSE             (DOSCALLS.59)
 0000:0000  Imp  DOSOPEN              (DOSCALLS.70)
 0000:0000  Imp  DOS16READ            (DOSCALLS.137)
 0000:0000  Imp  DOSDEVIOCTL          (DOSCALLS.53)
 0000:0000  Imp  KBDCHARIN            (KBDCALLS.4)
 0000:000C  Abs  __AHSHIFT
 0000:1000  Abs  __AHINCR
 0001:0000       ComAux
 0001:0000       __stAuxHeader
 0001:0002       ComAuxSeg
 0001:0004       DevAttributes
 0001:0006       StrategyOffset
 0001:0008       IDCoffset
 0001:000A       DeviceName
 0001:0012       ReservedWords
 0001:001E       __stDummyHeader
 0001:001E       xComAux
 0001:0022       xDevAttributes
 0001:0024       xStrategyOffset
 0001:0026       xIDCoffset
 0001:0028       xDeviceName
 0001:0030       xReservedWords
 0001:0038       dwSerialNumber
 0001:003C       wMaxPagerCount
 0001:003C       __wMaxPagerCount
 0001:003E       wMaxDeviceCount
 0001:003E       __wMaxDeviceCount
 0001:0040       byAdapterType
 0001:0040       __byAdapterType
 0001:0041       __byOEMtype
 0001:0041       byOEMtype
 0001:0042       wIDCsignature
 0001:0044       wIDCbuffer
 0001:0064       wPagerOpenCount
 0001:0066       IDCaccess
 0001:0066       IDCaccessRM
 0001:006A       IDCaccessRDS
 0001:006C       IDCaccessPM
 0001:006C       IDCaccessPMoff
 0001:006E       IDCaccessPMseg
 0001:0070       IDCaccessPDS
 0001:0072       IDCdata
 0001:00B2       device_hlp
 0001:00B6       wClockRate
 0001:00B8       wClockRate2
 0001:00BA       wLastEndOfData
 0001:00BC       wLastFunctionCall
 0001:00BE       wCurrentTarget
 0001:00C0       wSystemDebug
 0001:00C0       __wSystemDebug
 0001:00C2       wMiscControl
 0001:00C2       __wMiscControl
 0001:00C4       wWriteCountStart
 0001:00C6       wWriteCount
 0001:00C8       wIntRegistered
 0001:00CA       wDeviceCount
 0001:00CC       wCOMiLoadNumber
 0001:00CE       wTimerAllocCount
 0001:00D0       wCOMscopeStrategy
 0001:00D0       __wCOMscopeStrategy
 0001:00D2       wMaskTimerCount
 0001:00D4       abyInterruptCount
 0001:00E4       byLastModemOut
 0001:00E5       bOpenTrigger
 0001:00E6       bWriteTrigger
 0001:00E7       bReadTrigger
 0001:00E8       abyPath
 0001:00E8       __abyPath
 0001:01EC       ulTriggersSinceReboot
 0001:01F0       wIntIDregister
 0001:01F0       __wIntIDregister
 0001:01F2       __wOEMjumpEntry
 0001:01F2       wOEMjumpEntry
 0001:01F4       __wOEMjumpExit
 0001:01F4       wOEMjumpExit
 0001:01F6       wOEMjumpTest
 0001:01F6       __wOEMjumpTest
 0001:01F8       bSharedInterrupts
 0001:01F8       __bSharedInterrupts
 0001:01FA       wPCIvendor
 0001:01FA       __wPCIvendor
 0001:01FC       __wPCIdevice
 0001:01FC       wPCIdevice
 0001:01FE       wLastDeviceParmsOffset
 0001:0200       byIntStatusMask
 0001:0202       wBusType
 0001:0202       __wBusType
 0001:0204       bNoOUT2change
 0001:0206       wInterruptsUsed
 0001:0208       dwInputData_Return
 0001:020C       wDeviceIntOffsetTable
 0001:021C       wDeviceOffsetTable
 0001:022C       wEndOfData
 0001:022C       __wEndOfData
 0001:022E       __stDeviceParms
 0001:022E       stDeviceParms
 0001:09AE       wInitTimerCount
 0001:09AE       END_OF_KEEP_DATA
 0001:09B0       dwTimerCounter
 0001:09B4       IDCdeviceName
 0001:09BD       stABIOSrequestBlock
 0001:09EE       __stAttachDD
 0001:09EE       stAttachDD
 0001:09FA       __szName
 0001:09FA       szName
 0001:0A04       stStackUsage
 0002:0000       COM_interrupt_1
 0002:0006       COM_interrupt_2
 0002:000C       COM_interrupt_3
 0002:0012       COM_interrupt_4
 0002:0018       COM_interrupt_5
 0002:001E       COM_interrupt_6
 0002:0024       COM_interrupt_7
 0002:002A       COM_interrupt_8
 0002:0030       COM_interrupt_9
 0002:0036       COM_interrupt_10
 0002:003C       COM_interrupt_11
 0002:0042       COM_interrupt_12
 0002:0048       COM_interrupt_13
 0002:004E       COM_interrupt_14
 0002:0054       COM_interrupt_15
 0002:0058       COM_interrupt
 0002:006F       process_initial_interrupt
 0002:0089       HACK_TX_int
 0002:0096       ??0000
 0002:00A0       ??0001
 0002:00A6       get_modem_signals
 0002:00C8       test_delta_bits
 0002:00CC       process_modem_signals
 0002:00CF       restore_AL
 0002:00D1       vector_interrupt
 0002:00DF       retest_int_status
 0002:00E5       read_int_status_reg
 0002:0100       start_polling
 0002:0106       polling_loop
 0002:011F       poll_next
 0002:0131       do_cleanup
 0002:013D       send_EOI
 0002:014C       modem_int
 0002:0172       receive_line_status
 0002:018F       error_read_loop
 0002:01C3       ??0005
 0002:01D2       ??0002
 0002:01DB       ??0003
 0002:01F0       test_error_status
 0002:0213       ??0009
 0002:0222       ??0006
 0002:022B       ??0007
 0002:023F       test_null
 0002:024C       test_XHS_rls
 0002:0269       ??000D
 0002:0278       ??000A
 0002:0281       ??000B
 0002:0288       not_Xoff_rls
 0002:02A6       ??0011
 0002:02B5       ??000E
 0002:02BE       ??000F
 0002:02C8       queue_error_byte
 0002:02E3       get_next_status
 0002:02FD       last_byte
 0002:0332       ??0015
 0002:0341       ??0012
 0002:034A       ??0013
 0002:034A       line_status_exit
 0002:0379       clear_rd_sem_rls
 0002:0396       read_com_TO
 0002:039E       read_com
 0002:03BA       read_loop
 0002:03D7       FIFO_TO_INT_BAD
 0002:0400       clear_rd_sem
 0002:041D       get_byte
 0002:043F       test_XHS
 0002:045C       ??0019
 0002:046B       ??0016
 0002:0474       ??0017
 0002:047B       not_Xoff
 0002:0499       ??001D
 0002:04A8       ??001A
 0002:04B1       ??001B
 0002:04BB       queue_byte
 0002:04CE       test_next
 0002:04D4       write_com
 0002:0500       ??0021
 0002:050F       ??001E
 0002:0518       ??001F
 0002:051B       ??0022
 0002:0528       ??0023
 0002:0535       test_queue
 0002:054E       ??0024
 0002:0558       fill_loop
 0002:0568       COMscope_fill
 0002:056F       COMscope_fill_loop
 0002:057A       test_CS_wrap
 0002:0589       no_COMscope_wrap
 0002:0599       store_wrt_pointer
 0002:059F       ??0025
 0002:05A2       reset_timer
 0002:05B6       clear_wrt_sem
 0002:05CA       disable_TX_interrupt
 0002:05CE       ??0026
 0002:05D7       ??0027
 0002:05DF       ??0028
 0002:05E5       test_zero_ID
 0002:05F2       zero_poll_next
 0002:05FC       zero_is_clear_ID_entry
 0002:060F       zero_poll_loop
 0002:0628       test_FF_ID
 0002:0637       FF_poll_next
 0002:0641       FF_is_clear_ID_entry
 0002:0656       FF_poll_loop
 0002:066F       OEM_test_int_status
 0002:068E       ID_is_bits_on
 0002:06A8       ID_is_bits_off
 0002:06C4       device_one
 0002:06CA       device_two
 0002:06D0       device_three
 0002:06D6       device_four
 0002:06DC       device_five
 0002:06E2       device_six
 0002:06E8       device_seven
 0002:06EE       device_eight
 0002:06F5       DigiBoard_ID
 0002:0700       db_valid_int
 0002:070E       Interrupt_Vector
 0002:071C       dummy_vector_ret
 0002:071E       OEM_int_entry_table
 0002:072A       OEM_int_exit_table
 0002:0736       BitIDjumpTable
 0002:0838       strat_call_table
 0002:0872       _DeInstall
 0002:0880       ShutDown
 0002:0881       Strategy
 0002:08CC       test_CS_open
 0002:08DA       open_CS
 0002:08F0       test_CS_close
 0002:08F5       cs_close
 0002:0932       test_CS_read
 0002:093D       test_CS_write
 0002:0944       test_OS_tools_command
 0002:0961       COMscope_clear_loop
 0002:0972       COMscope_clear_done
 0002:0975       test_read
 0002:0986       error_out
 0002:098C       test_COM_command
 0002:099A       block_addr_error
 0002:09A0       set_command
 0002:09AA       do_command
 0002:09D4       is_error
 0002:09E1       done
 0002:09EC       _BadCommand
 0002:09FA       Timer
 0002:0A07       timer_loop
 0002:0A24       test_RTS
 0002:0A8A       test_Xmit
 0002:0AA7       test_stream_to_start
 0002:0AAE       timer_start_stream
 0002:0AB1       timer_loop_iteration_end
 0002:0ADC       TM1
 0002:0AE8       test_8_15
 0002:0AF4       TM2
 0002:0B00       timer_exit
 0002:0B07       _Open
 0002:0B20       sharing_error
 0002:0B2C       open_pager
 0002:0B32       test_pager_open
 0002:0B39       normal_open
 0002:0B40       open_general_fail
 0002:0B82       init_port
 0002:0BE1       open_exit
 0002:0BE3       _OpenProcess
 0002:0C50       normal_flag3_init
 0002:0CAD       normalize_baud
 0002:0CB0       got_baud
 0002:0CC6       clear_RX_buffer_loop
 0002:0D09       setup_thresholds
 0002:0D26       test_16750_threshold
 0002:0D32       test_16654_threshold
 0002:0D3E       set_16550_threshold
 0002:0D41       store_threshold
 0002:0D49       no_FIFO
 0002:0D52       clear_FIFO_control
 0002:0D91       open_explicit
 0002:0D9E       test_explicit_RTS
 0002:0DC2       test_open_CTS
 0002:0DE2       reset_CTS_output_HS_flag
 0002:0E18       test_DSR_input_HS
 0002:0E36       reset_DSR_input_HS_flag
 0002:0E3B       test_DSR_out
 0002:0E4B       reset_DSR_output_HS_flag
 0002:0E50       test_DCD
 0002:0E60       reset_DCD_output_HS_flag
 0002:0E65       enable_interrupts
 0002:0EF5       enable_mdm_int
 0002:0EFB       out_int_enable_reg
 0002:0F17       exit
 0002:0F18       _Close
 0002:0F7C       CloseProcess
 0002:0FDD       flush_buffers
 0002:1009       set_clear_modem_signals
 0002:1028       set_delay
 0002:102E       clear_break
 0002:1077       test_TX_hold_loop
 0002:1099       send_final_Xon
 0002:1194       InputStatus
 0002:11A5       OutputStatus
 0002:11B6       InputFlush
 0002:11EB       OutputFlushTrace
 0002:11FF       ??0048
 0002:120E       ??0045
 0002:1217       ??0046
 0002:1217       OutputFlush
 0002:124B       flush_exit
 0002:124D       Peek
 0002:1260       store_peek
 0002:1266       no_byte_in_queue
 0002:126C       AuxStrategy
 0002:1272       xAuxStrategy
 0002:1278       Strategy1
 0002:1278       __pDeviceStrategy
 0002:127E       Strategy2
 0002:1284       Strategy3
 0002:128A       Strategy4
 0002:1290       Strategy5
 0002:1296       Strategy6
 0002:129C       Strategy7
 0002:12A2       Strategy8
 0002:12A8       Strategy9
 0002:12AE       Strategy10
 0002:12B4       Strategy11
 0002:12BA       Strategy12
 0002:12C0       Strategy13
 0002:12C6       Strategy14
 0002:12CC       Strategy15
 0002:12D2       Strategy16
 0002:12D8       Strategy1m
 0002:12D8       __pCOMscopeStrategy
 0002:12DE       Strategy2m
 0002:12E4       Strategy3m
 0002:12EA       Strategy4m
 0002:12F0       Strategy5m
 0002:12F6       Strategy6m
 0002:12FC       Strategy7m
 0002:1302       Strategy8m
 0002:1308       Strategy9m
 0002:130E       Strategy10m
 0002:1314       Strategy11m
 0002:131A       Strategy12m
 0002:1320       Strategy13m
 0002:1326       Strategy14m
 0002:132C       Strategy15m
 0002:1332       Strategy16m
 0002:1338       nDDAttachFunction
 0002:1338       _DDAttachFunction
 0002:13A8       AttachDDjumpTable
 0002:13B4       LocalIDCaccess
 0002:13CE       _ExtensionFunction
 0002:16EB       ExtensionJumpTable
 0002:1710       Set16650_RTS_HS
 0002:1757       Set16650_CTS_HS
 0002:179B       ProcessFlag1
 0002:17DC       test_DSR_Xoff_threshold
 0002:17EF       set_DTR_HS_flag
 0002:17F6       test_DTR_enable
 0002:180B       disable_DTR
 0002:1814       test_DSR_in
 0002:1848       set_DSR_input_HS_flag
 0002:184D       test_CTS_proc
 0002:1870       disable_CTS_output_HS
 0002:1880       test_HDW_HS
 0002:1893       test_TI_ACE_CTS_HS
 0002:18B1       no_ACE_CTS_HDW_HS
 0002:18BA       clear_CTS_was_flag
 0002:18BE       test_DSR_out_HS
 0002:18CE       set_DSR_output_HS_flag
 0002:18DE       test_DCD_proc
 0002:18EE       set_DCD_output_HS_flag
 0002:18FE       move_Flag1
 0002:1909       ProcessFlag2
 0002:1936       test_TX_waiting
 0002:1948       test_handshake
 0002:195B       test_RTS_toggle
 0002:199C       enable_RTS_toggle
 0002:19A9       test_RTS_input_HS
 0002:19E4       process_RTS_SW_HS
 0002:1A16       test_RTS_HS_threshold
 0002:1A29       set_RTS_HS_flag
 0002:1A30       clear_SW_RTS_HS_device_flag
 0002:1A4D       test_TI_ACE_RTS_HS
 0002:1A76       reset_RTS
 0002:1AA6       test_transmit_Xon_Xoff
 0002:1AC2       enable_xmit_processing
 0002:1AC7       test_receive_Xon_Xoff
 0002:1B73       set_immediate_byte
 0002:1B7D       reset_waiting_to_transmit_Xon
 0002:1B93       enable_receive_Xon_Xoff
 0002:1C43       store_immediate_byte
 0002:1C4D       set_receive_Xoff_in_progress
 0002:1C5C       move_Flag2
 0002:1C69       PROCESSFLAG3
 0002:1CB2       do_Write_TO
 0002:1CDE       do_FIFO
 0002:1D02       setup_FIFOs
 0002:1D30       change_FIFOs
 0002:1D3F       test_APO
 0002:1D46       set_FIFO_size
 0002:1D64       test_16654
 0002:1D75       test_16750
 0002:1D8D       set_16550
 0002:1D95       set_depth
 0002:1DA1       set_up_APO
 0002:1DAE       enable_TX_buffer
 0002:1DCB       limit_TX_FIFO
 0002:1DCE       test_input_HS
 0002:1DD4       test_DSR_input
 0002:1DDC       limit_RX_FIFO
 0002:1DE2       out_FIFO_control
 0002:1E2C       set_16750_to_64_byte_FIFOs
 0002:1E68       set_FCR
 0002:1E7D       move_Flag3
 0002:1E8C       WriteBlock
 0002:1ECA       infinite_TO
 0002:1EFF       _Write
 0002:1F39       write_fault
 0002:1F41       no_wrt_lock_up
 0002:1F75       test_write_flushed
 0002:1F84       test_wrt_packet_depth
 0002:1FA5       wrt_general_fail
 0002:1FAD       queue_wrt_packet
 0002:1FBB       wait_block
 0002:1FD4       pull_wrt_req_packet
 0002:1FEC       test_wrt_flushed
 0002:1FFB       do_write
 0002:2021       define_buffer
 0002:2041       clear_bytes_left
 0002:2046       fill_buffer
 0002:2065       move_bytes
 0002:206E       byte_only
 0002:206F       unconvert
 0002:208C       prime_write
 0002:2097       check_TX_holding_register
 0002:20AE       wait_Tx_empty_loop
 0002:20C9       test_timeout
 0002:20DD       test_HDW_TX_HS
 0002:20EA       test_HDW_TX_HS_loop
 0002:215B       initiate_stream
 0002:2200       test_TX_HS
 0002:220F       test_TX_HS_loop
 0002:2282       start_stream
 0002:232E       enable_write_interrupts
 0002:2344       WRT_BLK
 0002:2364       test_more_data
 0002:2371       last_out
 0002:237B       disable_write_interrupt
 0002:23A8       write_exit
 0002:23DD       clear_wrt_in_progress_bit
 0002:23E6       abort_write
 0002:23F4       _Read
 0002:241B       no_rd_lock_up
 0002:244C       test_read_was_flushed
 0002:245B       test_read_packet_depth
 0002:247C       read_general_fail
 0002:2484       queue_packet
 0002:24A1       queue_wait_block
 0002:24BB       pull_req_packet
 0002:24D3       test_read_flushed
 0002:24E2       do_read
 0002:251A       verify_and_block
 0002:252F       set_read_loop
 0002:2546       no_wait_loop
 0002:2558       normal
 0002:255D       normal_loop
 0002:2570       read_return
 0002:2579       unconvert_and_block
 0002:257F       read_block
 0002:25CD       read_sem_cleared
 0002:25E0       dequeue_bytes
 0002:25F8       reread_loop
 0002:2613       conversion_error
 0002:2615       test_reentry
 0002:262B       read_timed_out
 0002:2651       calc_final_count
 0002:2657       read_exit
 0002:268C       clear_read_in_progress_bit
 0002:2695       abort_read
 0002:26A4       ioctl_call_table
 0002:2722       _GenIOctl
 0002:27A1       _BadFunction
 0002:27DC       _GetThresholds
 0002:2868       _SetThresholds
 0002:28F4       _GetFIFOinfo
 0002:29B3       _SetFIFO
 0002:2A91       _set_DCB
 0002:2C43       _get_DCB
 0002:2CE3       _SetLongBaud
 0002:2D82       _SetShortBaud
 0002:2E33       _SetLineCharacteristics
 0002:2F2D       _TXbyteImmediate
 0002:3054       _SetModemControl
 0002:3284       _ForceXOFF
 0002:32A1       _ForceXON
 0002:32D1       _BreakOff
 0002:3389       _BreakOn
 0002:34C3       _GetLongBaud
 0002:3595       _GetShortBaud
 0002:361E       _GetLineCharacteristics
 0002:36FC       _GetComStatus
 0002:376C       _GetXmitStatus
 0002:3813       _GetModemOutSignals
 0002:388C       _GetModemInSignals
 0002:3919       _GetReceiveQueueCount
 0002:39AF       _GetTransmitQueueCount
 0002:3A35       _GetComError
 0002:3AA3       _GetComEventInfo
 0002:3B36       _GetComFlags
 0002:3BE3       _GetCOMscopeData
 0002:3D1C       _COMscopeControl
 0002:3E8D       _GetDeviceData
 0002:3F56       _GetCountsSinceLast
 0002:3FDC       GetReceiveQueueHSspan
 0002:4008       GetXmitQueueLen
 0002:400E       GetReceiveQueueLen
 0002:4039       WrtReceiveQueue
 0002:4096       wrt_place_byte
 0002:40ED       wrt_test_place_wrap
 0002:4107       wrt_receive_queue_not_full
 0002:4124       InputHandshakeDB
 0002:4149       wrt_send_Xoff
 0002:417B       wrt_test_hdw_HS
 0002:418D       wrt_test_DTR
 0002:4195       wrt_modem_ctl_out
 0002:41CE       ReadReceiveQueue
 0002:423E       rd_send_Xon
 0002:426B       rd_test_hdw_HS
 0002:427D       rd_test_DTR
 0002:4285       rd_no_DTR_HS
 0002:42BF       ProcessBaud
 0002:4319       ReadPath
 0002:4396       ProcessModemSignals
 0002:43D6       PMS_test_DCD
 0002:43DE       PMS_store_event
 0002:43E1       PMS_test_DSR_input_HS
 0002:4407       PMS_read_loop
 0002:4414       PMS_get_byte
 0002:4430       PWS_test_XHS
 0002:446C       PMS_not_Xoff
 0002:44AD       PMS_queue_byte
 0002:44C2       PMS_test_next
 0002:44C8       PMS_clear_FIFO
 0002:44D4       PMS_reset_DSR_input_HS_flag_pop
 0002:44D5       PMS_reset_DSR_input_HS_flag
 0002:44DC       PMS_set_DSR_input_HS_flag
 0002:44E1       PMS_test_CTS_output_HS
 0002:4511       PMS_set_CTS_output_HS_flag
 0002:4516       PMS_test_DSR_output_HS
 0002:4536       PMS_test_DCD_output_HS
 0002:4556       PMS_process_end
 0002:4559       CalcBaudRate
 0002:4699       StartWriteStream
 0002:46BA       SWS_enable_TX_interrupt
 0002:46D0       SWS_setup_fill
 0002:479E       SWS_test_semaphore
 0002:47A7       SWS_clear_write_sem
 0002:4861       SWS_enable_write_interrupts
 0002:4877       FlushInputBuffers
 0002:48CC       ClearInputHandshake
 0002:49F4       ReadFIFO
 0002:4A25       RF_read_loop
 0002:4A43       RF_test_XHS
 0002:4ABF       RF_queue_byte
 0002:4ACC       RF_test_next
 0002:4AF1       UpdateModemHandshakeBits
 0002:4B3B       CalcTimeout
 0002:4B8D       CalcWriteTimeout
 0002:4BB3       RequestInterrupt
 0002:4C5A       IntRequestTable
 0002:4C7C       ReleaseInterrupt
 0002:4C8F       _COMscopeReadWrite
 0002:4D00       _COMscopeDevIOCtl
 0002:4DBE       _DevHelp_GetDOSVar
 0002:4DF4       Location
 0002:4E35       _Init
 0002:4F19       AfterDebugDelay
 0002:4F8B       get_configuration
 0002:4F8B       ReadConfigFile
 0002:5008       continue_initialization
 0002:50B8       calculate_delay_count
 0002:5120       begin_device_init
 0002:52FC       non_device
 0002:5318       attempt_access
 0002:54DC       set_thresholds
 0002:564B       do_def_FIFO_depth
 0002:571F       lock_LID
 0002:574B       write_installed_message
 0002:57B5       adjust_last_end_of_data
 0002:57BC       set_end_of_data_segment
 0002:57F5       init_exit
 0002:5806       display_finals
 0002:591C       TestMCA
 0002:5981       _GetLIDentry
 0002:59AC       Ring0Access
 0002:5B00       _GetAllSerialPCIAdapters
 0002:5B71       got_any_PCI_adapter
 0002:5BD8       _LoadPCIAdapter
 0002:5CAA       any_vendor
 0002:5D24       _FindPCISerialAdapter
 0002:5D74       HookPCI_BIOS
 0002:5DD4       GetPCIdata
 0002:5E08       SetPCIdata
 0002:5E41       _GetPCIAdapter
 0002:5F44       GetSerialPCIAdapter
 0002:5FA8       got_PCI_adapter
 0002:5FFE       no_PCI_adapter
 0002:6004       _LoadMoxaPCI
 0002:6096       _LoadSunixPCI
 0002:610C       _LoadGlobetekPCI
 0002:6182       _LoadSealevelPCI
 0002:6203       _LoadBlueHeatPCI
 0002:6260       GetOEMadapter
 0002:62A2       _FindOEMAdapter
 0002:6343       _FindMoxaPCI
 0002:63B5       _FindGlobetekPCI
 0002:6420       _FindSealevelPCI
 0002:648B       _FindBlueHeat
 0002:64F6       PCIhdwQuickTest
 0002:6524       TestValidHDW
 0002:65AA       not_UART_1
 0002:660A       not_UART_2
 0002:6672       not_UART_3
 0002:667E       init_UART
 0002:6728       set_test_BAUD
 0002:677A       req_interrupt_test
 0002:67E9       test_interrupt_used
 0002:686C       test_interrupts
 0002:68C0       init_interrupt_test_point
 0002:68FE       test_UART
 0002:6960       not_UART_4
 0002:6984       not_UART_5
 0002:699D       test_baud_clock
 0002:6A72       get_baud_multiplier
 0002:6AA6       set_baud_multiplier
 0002:6AAE       test_FIFO_size
 0002:6B01       size_found
 0002:6B0F       disable_FIFOs
 0002:6C59       HDW_test_exit
 0002:6C61       ClearAllInterrupts
 0002:6D04       InitInterrupt
 0002:6D7F       test_ID_is_bits
 0002:6E40       test_DigiBoard_ID
 0002:6E54       _MemorySetup
 0002:6FEB       PrintString
 0002:7014       binac_10
 0002:7046       binac
 0002:707B       ASCIItoBinary
 0002:71BA       GetNumber
 0002:7224       ParseArguments
 0002:7426       ChangeINIname
 0002:747F       OutputProgress
 0002:7660       CalcDelay
 0002:768D       InitTimer
 0002:76A6       DelayFunction
 0002:7706       GetCOMnumber
 0002:7717       StorePath
 0002:7751       SetRing0Access
 0003:0000       _OEMHLPname
 0003:0009       _OEMHLPhandle
 0003:000B       _Action
 0003:000D       _stPCIdata_BIOSinfo
 0003:0012       _stPCIdata_Config
 0003:0017       _stPCIdata_Device
 0003:001A       _stPCIparam_ClassCode
 0003:0020       _stPCIparam_Config
 0003:0029       _stPCIparam_Device
 0003:002F       _wLoadNumber
 0003:0031       _wLoadCount
 0003:0033       _wSelectorCount
 0003:0035       _wLoadFlags
 0003:0037       _bIsTheFirst
 0003:0039       _bABIOSpresent
 0003:003B       _byInitIntORmask
 0003:003C       _byInitIntANDmask
 0003:003D       _byNextPCIslot
 0003:003E       _xBaudMultiplier
 0003:003F       _bPnPcapable
 0003:0041       _bPCI_BIOSpresent
 0003:0043       _dwPCIvector
 0003:0047       _ulAvailableBufferSpace
 0003:004B       _ulRequiredBufferSpace
 0003:004F       _ulWriteBufferSpace
 0003:0053       _bUseDDdataSegment
 0003:0055       _wInitDebugFlags
 0003:0057       _bTimerAvailable
 0003:0059       _bDisableRM
 0003:005B       _wDriverLoadCount
 0003:005D       _stRMparms
 0003:00C9       _awGDTselectors
 0003:00E9       _Ring0Vector
 0003:00ED       _wLID
 0003:00EF       _LIDtable
 0003:016F       _astInstallParms
 0003:017F       _wInstallTryCount
 0003:0181       _byIntIDregisterPreset
 0003:0182       _byLoadAdapterType
 0003:0183       _szDefaultPath
 0003:0287       _abyCOMnumbers
 0003:028F       _bPrimaryInit
 0003:0291       _bDebugDelay
 0003:0293       _stConfigParms
 0003:03E3       _bSeparateIDreg
 0003:03E5       _iIntIDindex
 0003:03E7       _StackPointer
 0003:03E9       _iDataIndex
 0003:03EB       _bIntIDavailable
 0003:03ED       _bContinueParse
 0003:03EF       _wCurrentDevice
 0003:03F1       _wBaseDevice
 0003:03F3       _wDelayCount
 0003:03F5       _bOUT1activate
 0003:03F7       _bBadLoad
 0003:03F9       _PreviousLID
 0003:03FB       _byPortNumber
 0003:03FC       _wBufferLength
 0003:03FE       _abyNumber
 0003:0408       _abyTemp
 0003:040E       _bWaitingKey
 0003:0410       _bValidIntIDreg
 0003:0412       _bValidInterrupt
 0003:0414       _wInitTestPort
 0003:0416       _bUsesSixteenAddrLines
 0003:0418       _bVerbose
 0003:041A       _bDelay
 0003:041C       _bPrintLocation
 0003:041E       _wPCIcount
 0003:0420       _astMCAportTable
 0003:043B       _PCItable
 0003:043D       _SealevelPCIadapterTable
 0003:044D       _ConnectechPCIadapterTable
 0003:0457       _GlobetekPCIadapterTable
 0003:045F       _MoxaPCIadapterTable
 0003:0465       _ClassCodeTable
 0003:04AD       _stPCIadapterTable
 0003:04DD       _stPCIadapterHold
 0003:050D       _ADFtable
 0003:050F       _wDeviceCount
 0003:0511       _wPCIadapterCount
 0003:0513       _abyString
 0003:0613       _bWaitForCR
 0003:0615       _chFailedReadIni
 0003:0646       _chFailedWriteIni
 0003:067B       _chFailedBadVersion_1
 0003:06A2       _chFailedBadVersion_2
 0003:071B       _chFailedIniNotInit_1
 0003:073B       _chFailedIniNotInit_2
 0003:07AB       _chFailedIniCorrupt_1
 0003:07C8       _chFailedIniCorrupt_2
 0003:0839       _chFailedBadPath
 0003:0868       _chPCI_LoadOrder_1
 0003:08B2       _chPCI_LoadOrder_2
 0003:0902       _chPCIBadIRQ
 0003:094D       _chTooManyPCIadapters
 0003:099A       _chPCIMissing
 0003:09DE       _szMessage
 0003:0AA6       _abyFileBuffer
 0003:2AA6       _wEndOfInitData
 0003:2AE8       _szAdapterDescription
 0003:2B38       _pszUART
 0003:2B3C       _sz16650UART
 0003:2B42       _sz16750UART
 0003:2B48       _sz16654UART
 0003:2B4E       _sz16550UART
 0003:2B54       _sz16950UART
 0003:2B5A       _szUART
 0003:2B60       _DriverStruct
 0003:2B7C       _AdapterStruct
 0003:2B94       _LComName
 0003:2BA2       _aszFSComName
 0003:2C42       _szErrMsg
 0003:2CA6       _usIDregIndex
 0003:2CA8       _RM_Help
 0003:2CAC       _RMFlags
 0003:2CB0       _Device_Help
 0003:2CB4       _RM_Help0
 0003:2CB8       _RM_Help3
 0003:2CBC       _cSerialNodes
 0003:2CBE       _hDriver
 0003:2CC2       _hAdapter
 0003:2D06       _hResPorts
 0003:2D4A       _hResIRQs
 0003:2F3C       _szLogoMessage_s
 0003:2F90       _szSubLogo
 0003:2FE4       _szVerMod
 0003:2FE6       _szCopyright
 0003:30B8       _szCreditHeader
 0003:312E       _szVersion
 0003:313C       _szVersionString_ss
 0003:314C       _szPath_sss
 0003:3156       _szHighlightOn
 0003:315C       _szHighlightOff
 0003:3162       _szBeepChar
 0003:3164       _szNoise
 0003:3168       _szCR_2x
 0003:316E       _szCR
 0003:3172       _szCRonly
 0003:3174       _szWaitKeyMessage
 0003:3192       _szDebugMessage
 0003:31BE       _szCodeLocation_xxxxxxx
 0003:31F0       _szClockRate_u
 0003:3242       _szEvaluationMsg
 0003:33E0       _szCOMmessage_u
 0003:33F0       _szVerboseMessage_uxu
 0003:3432       _szInputBuff_lu
 0003:3452       _szOutputBuff_lu
 0003:3474       _szInputQueue_u
 0003:3492       _szOutputQueue_u
 0003:34B2       _szUART_s
 0003:34BE       _szUART_is
 0003:34C8       _szAnd
 0003:34CC       _szAnd4x
 0003:34F0       _szAnd8x
 0003:3514       _szAnd12x
 0003:353A       _szAnd16x
 0003:3560       _szBlankPad
 0003:3568       _szPeriod
 0003:356E       _szExtended16550
 0003:3588       _szExtended16650
 0003:35A8       _szExtended16654
 0003:35C8       _szExtended16750
 0003:35E8       _szExtended16950
 0003:360A       _szExtendedTI16550C
 0003:362E       _szABIOSaddrInvalid_u
 0003:3698       _szABIOSaddrTaken_u
 0003:3710       _szABIOSname_u
 0003:376A       _szABIOSowned_u
 0003:37C0       _szRMowned_u
 0003:3816       _szSkippedPort_u
 0003:3842       _szBadInstall
 0003:38EA       _szHDWinterruptError_uu
 0003:3946       _szPCIerror_u
 0003:398A       _szHDWerror_xu
 0003:39E4       _szInterruptError_uu
 0003:3A26       _szBaseAddrError_u
 0003:3A74       _szInterruptLevelError_u
 0003:3AC6       _szInterruptIDerror_u
 0003:3B1C       _szFinalError
 0003:3B9C       _szAllocBuffers_ululu
 0003:3C26       _szAllocError
 0003:3CAC       _szMemoryError_u
 0003:3D04       _szNoPortAvailable
 0003:3DEE       _szNoStackAvailable_uu
 0003:3E3C       _stConfigInfo
 0003:3E68       _stConfigHeader
 0003:3EA6       _stDCBheader
 0003:3EE0       _bPrevErrorMsg
 0003:3EE2       _hCom
 0003:3EE4       _hFile
 0003:3EE6       _pDeviceParms
 0003:3EEA       _pStart
 0003:3EEE       _pPrevious
 0003:3EF2       _wDeviceStrategy
 0003:3EF4       _wCOMscopeStrategy
 0003:3EF6       _stDefaultDevHeader
 0003:3F10       _bBreakInitialization
 0003:3F12       _awPorts
 0003:3F50       _iLIDcount
 0003:3F66       _RMIDCTable
 0004:0000       _StringLength
 0004:002A       _CalcBaudRate
 0004:0080       _MakeCOMscopeName
 0004:00C0       _AttachDD
 0004:00E2       _GetDeviceInterrupt
 0004:010F       _FreeLIDentry
 0004:0127       _GetDeviceBlockLen
 0004:015C       _GetDeviceBlockOffset
 0004:0180       _GetDeviceAddress
 0004:01B5       _GetKernalData
 0004:020E       _RMHELP_SetDevHelp
 0004:0225       _RMHELP_CreateDriver
 0004:029F       _RMHELP_DestroyDriver
 0004:02F1       _RMHELP_CreateAdapter
 0004:04AB       _RMHELP_CreateStatusPort
 0004:0587       _RMHELP_FreeAdapter
 0004:0624       _RMHELP_AllocPorts
 0004:06C5       _RMHELP_AllocStatusPort
 0004:077B       _RMHELP_AllocIRQ
 0004:07FD       _RMHELP_GetPorts
 0004:0952       _RMHELP_GetStatusPort
 0004:09B1       _RMHELP_PortInitComplete
 0004:0AB2       _RMHELP_StatusPortInitComplete
 0004:0B31       _RMHELP_PortDidntInstall
 0004:0B4C       _RMHELP_CreateLDev
 0004:0CAB       _RMHELP_DestroyLDev
 0004:0D23       _RMHELP_FindPCMCIANode
 0004:0D9E       _RMHELP_HasPNPCaps
 0004:0E15       _RMHELP_FindDetectedRes
 0004:0FAB       _RMHELP_UpdateComInfo
 0004:1133       _RMHELP_FindDetected
 0004:122C       _FormatConvert
 0004:135F       _sprintf
 0004:1831       _PrintMessage
 0004:184C       _vaStart
 0004:1863       _vaArgValue
 0004:189F       _vaArgAddr
 0004:18D0       _MemCopy
 0004:1905       _GetIniInfo
 0004:2902       _VerifyABIOSdefinitions
 0004:2AF2       _BuildLIDtable
 0004:30BE       _LoadHeadersFromABIOStable
 0004:32CC       _atoi
 0004:32D0       _memset
 0004:3318       __aFFauldiv
 0004:333A       __aFuldiv
 0004:339A       __aFulrem
 0004:3404       __catox
 0004:345C       MY_DEVHELP_ATTACHDD
 0004:347E       _RMCreateDriver
 0004:34F8       _RMDestroyDriver
 0004:3524       _RMCreateAdapter
 0004:355E       _RMAllocResource
 0004:3598       _RMDeallocResource
 0004:35C4       _RMDestroyAdapter
 0004:35F0       _RMCreateLDev
 0004:362A       _RMDestroyLDev
 0004:3656       _RMCreateSysName
 0004:3690       _RMDestroySysName
 0004:36BC       _RMKeyToHandleList
 0004:36F2       _RMGetNodeInfo
 0004:372A       _RMDevIDToHandleList
 0004:3762       _RMConvertID
 0004:379A       _CallRM
 0004:37C2       _GetCS
