
 INSTALL

 Start         Length     Name                   Class
 0001:00000000 000004659H CODE32                 CODE 32-bit
	at offset 00000000 01194H bytes from P:\install\ga\inst_dlg.obj (p:\Install\inst_dlg.c)
	at offset 000011a0 0262AH bytes from P:\install\ga\winstall.obj (p:\Install\winstall.c)
	at offset 000037d0 00362H bytes from P:\install\ga\help.obj (p:\Install\help.c)
	at offset 00003b40 00841H bytes from P:\install\ga\instutil.obj (p:\Install\instutil.c)
	at offset 00004384 000BEH bytes from F:\IBMCPP\LIB\CPPOM30O.lib (D:\SwordCSD\crt\dde4strt.c)
	at offset 00004444 00007H bytes from F:\IBMCPP\LIB\CPPOM30O.lib (D:\SwordCSD\crt\cppinit.asm)
	at offset 0000444c 001F8H bytes from F:\IBMCPP\LIB\CPPOM30O.lib (D:\SwordCSD\crt\setuparg.asm)
	at offset 00004644 0000DH bytes from F:\IBMCPP\LIB\CPPOM30O.lib (D:\SwordCSD\crt\sctdt.c)
	at offset 00004654 00005H bytes from F:\IBMCPP\LIB\CPPOM30O.lib (D:\SwordCSD\crt\wctdt.c)

 0002:00000000 000000000H CONST32_RO             CONST 32-bit

 0002:00000000 000000EFCH DATA32                 DATA 32-bit
	at offset 00000000 00148H bytes from P:\install\ga\inst_dlg.obj (p:\Install\inst_dlg.c)
	at offset 00000148 00C40H bytes from P:\install\ga\winstall.obj (p:\Install\winstall.c)
	at offset 00000d88 00110H bytes from P:\install\ga\help.obj (p:\Install\help.c)
	at offset 00000e98 00050H bytes from P:\install\ga\instutil.obj (p:\Install\instutil.c)
	at offset 00000ee8 00004H bytes from F:\IBMCPP\LIB\CPPOM30O.lib (D:\SwordCSD\crt\exeentry.asm)
	at offset 00000eec 00010H bytes from F:\IBMCPP\LIB\CPPOM30O.lib (D:\SwordCSD\crt\setuparg.asm)

 0002:00000EFC 000000000H CTOR_DTOR1             DATA 32-bit

 0002:00000EFC 000000000H CTOR_DTOR2             DATA 32-bit

 0002:00000EFC 000000000H CTOR_DTOR3             DATA 32-bit

 0002:00000EFC 000000000H EDC1                   EDC_CLASS 32-bit

 0002:00000EFC 000000018H EDC2                   EDC_CLASS 32-bit
	at offset 00000000 0000CH bytes from F:\IBMCPP\LIB\CPPOM30O.lib (D:\SwordCSD\crt\cppinit.asm)
	at offset 0000000c 0000CH bytes from F:\IBMCPP\LIB\CPPOM30O.lib (D:\SwordCSD\crt\setuparg.asm)

 0002:00000F14 000000000H EDC3                   EDC_CLASS 32-bit

 0002:00000F14 000000038H BSS32                  BSS 32-bit
	at offset 00000000 00030H bytes from P:\install\ga\winstall.obj (p:\Install\winstall.c)
	at offset 00000030 00008H bytes from F:\IBMCPP\LIB\CPPOM30O.lib (D:\SwordCSD\crt\dde4strt.c)

 0002:00000F4C 000000D18H c_common               BSS 32-bit

 0002:00001C70 000004000H STACK32                STACK 32-bit
	at offset 00000000 08000H bytes from F:\IBMCPP\LIB\CPPOM30O.lib (D:\SwordCSD\crt\exeentry.asm)


 Origin   Group
 0000:0   FLAT
 0002:0   DGROUP

  Address         Publics by Name

 0000:00000000  Imp  AppendINI            (OS2LS_UT.24)
 0002:00000C7C       bCOMscopeToInstall
 0002:00000F38       bInstallDemo
 0002:00000F2C       bItemFiveLocked
 0002:00000F28       bItemFourLocked
 0002:00000C9C       bItemOneLocked
 0002:00000F24       bItemThreeLocked
 0002:00000F20       bItemTwoLocked
 0002:00000C94       bLibrariesToInstall
 0002:00000C98       bObjectsToCreate
 0002:00000C8C       bPagerToInstall
 0002:00000C90       bPDRtoInstall
 0002:00000C88       bUtilToInstall
 0001:00003B40       CenterWindow
 0000:00000000  Imp  CheckButton          (OS2LS_UT.3)
 0000:00000000  Imp  Checked              (OS2LS_UT.22)
 0000:00000000  Imp  ControlEnable        (OS2LS_UT.7)
 0001:000038C4       DestroyHelpInstance
 0001:000038F0       DisplayHelpPanel
 0000:00000000  Imp  DosAllocMem          (DOSCALLS.299)
 0000:00000000  Imp  DosBeep              (DOSCALLS.286)
 0000:00000000  Imp  DosClose             (DOSCALLS.257)
 0000:00000000  Imp  DosDevIOCtl          (DOSCALLS.284)
 0000:00000000  Imp  DosExit              (DOSCALLS.234)
 0000:00000000  Imp  DosExitList          (DOSCALLS.296)
 0000:00000000  Imp  DosFreeMem           (DOSCALLS.304)
 0000:00000000  Imp  DosFreeModule        (DOSCALLS.322)
 0000:00000000  Imp  DosLoadModule        (DOSCALLS.318)
 0000:00000000  Imp  DosOpen              (DOSCALLS.273)
 0000:00000000  Imp  DosQueryFileInfo     (DOSCALLS.279)
 0000:00000000  Imp  DosQueryPathInfo     (DOSCALLS.223)
 0000:00000000  Imp  DosQueryProcAddr     (DOSCALLS.321)
 0000:00000000  Imp  DosQuerySysInfo      (DOSCALLS.348)
 0000:00000000  Imp  DosRead              (DOSCALLS.281)
 0000:00000000  Imp  DosSetExceptionHandler (DOSCALLS.354)
 0000:00000000  Imp  DosUnsetExceptionHandler (DOSCALLS.355)
 0000:00000000  Imp  exit                 (OS2LSRTL.106)
 0002:000010E4       fattBigFont
 0002:0000116C       fattMsgFont
 0001:000037F0       fnwpAboutBoxDlgProc
 0001:00000420       fnwpInfoDlgProc
 0001:000006E4       fnwpTransferDlg
 0001:00000090       fnwpUninstallDlgProc
 0000:00000000  Imp  free                 (OS2LSRTL.88)
 0001:00003C34       GetDriverPath
 0000:00000000  Imp  GpiCharStringAt      (PMGPI.359)
 0000:00000000  Imp  GpiCreateLogFont     (PMGPI.368)
 0000:00000000  Imp  GpiDestroyPS         (PMGPI.379)
 0000:00000000  Imp  GpiQueryFonts        (PMGPI.586)
 0000:00000000  Imp  GpiSetBackColor      (PMGPI.504)
 0000:00000000  Imp  GpiSetBackMix        (PMGPI.505)
 0000:00000000  Imp  GpiSetCharSet        (PMGPI.513)
 0000:00000000  Imp  GpiSetColor          (PMGPI.517)
 0002:00001610       hConfigProfile
 0002:0000178C       hdcPs
 0001:000039F4       HelpHelpForHelp
 0001:00003950       HelpIndex
 0001:00003A28       HelpInit
 0002:00001934       hInstalledProfile
 0002:00001790       hpsPs
 0002:00001704       hSourceProfile
 0002:00001BC8       hwndClient
 0002:00001788       hwndInstallHelpInstance
 0001:00002620       main
 0000:00000000  Imp  malloc               (OS2LSRTL.167)
 0001:00004318       MemAlloc
 0001:00004373       MemFree
 0000:00000000  Imp  MenuItemEnable       (OS2LS_UT.9)
 0000:00000000  Imp  MessageBox           (OS2LS_UT.29)
 0000:00000000  Imp  PrfCloseProfile      (PMSHAPI.103)
 0000:00000000  Imp  PrfOpenProfile       (PMSHAPI.102)
 0000:00000000  Imp  PrfQueryProfileData  (PMSHAPI.117)
 0000:00000000  Imp  PrfQueryProfileString (PMSHAPI.115)
 0001:00004225       PrintBanners
 0001:00004110       PrintDebug
 0001:00003DA0       PrintProgress
 0001:00003F60       PrintUninstallProgress
 0002:00001AB0       pszCurrentAppsPath
 0002:000017D4       pszHelpFileSpec
 0002:00001AAC       pszPath
 0002:00001C5C       pszUninstallIniPath
 0000:00000000  Imp  realloc              (OS2LSRTL.277)
 0001:00003CE0       SetEndOfPath
 0001:00003BB0       SetInitialPosition
 0002:00001AB4       stBigCell
 0002:00001AB8       stCOMiCFG
 0002:000015A0       stFileStatus
 0002:000017DC       stInst
 0002:00001B24       stMsgCell
 0002:00001B08       stPageCFG
 0002:00001234       stUninstall
 0002:00001254       szAppIconFile
 0002:000011E0       szAppVersion
 0002:00001068       szBannerOne
 0002:0000111C       szBannerTwo
 0002:00001A08       szCheckFiveCaption
 0002:00001A44       szCheckFourCaption
 0002:000018E0       szCheckOneCaption
 0002:00001B30       szCheckThreeCaption
 0002:00001938       szCheckTwoCaption
 0002:000015BC       szCOMiVersion
 0002:000019B8       szCOMscopeVersion
 0002:000016C8       szConfigAppFunctionName
 0002:00001614       szConfigAppHelpFileName
 0002:000010A8       szConfigAppLibraryName
 0002:00001798       szConfigAppName
 0002:00001028       szConfigDDfunctionName
 0002:00000FEC       szConfigDDhelpFileName
 0002:00001C20       szConfigDDlibraryName
 0002:00001650       szConfigDDname
 0002:00001A80       szDDname
 0002:00001664       szDebugLineOne
 0002:00001724       szDebugLineTwo
 0002:00001974       szDefaultAppsPath
 0002:00001850       szDefaultDLLpath
 0002:00001BCC       szDemoPath
 0002:00000F88       szDriverVersionString
 0002:00001B70       szEXEtitle
 0002:00001280       szFalseStart1
 0002:00001410       szFalseStart2
 0002:00000E7C       szHelpWindowTitle
 0002:0000170C       szInfoFileName
 0002:00001890       szInstallVersion
 0002:0000191C       szLicenseFileName
 0002:000017AC       szPagerFileName
 0002:000011A4       szTransferFunctionName
 0002:00000F4C       szTransferLibraryName
 0002:00001064       ulBootDrive
 0002:00001B6C       ulCOMiSize
 0002:00001708       ulCOMscopeSize
 0002:000015B8       ulInstallSize
 0002:00001C1C       ulLibsSize
 0002:00001B2C       ulOEMtype
 0002:00001168       ulPagerSize
 0002:00001B28       ulPDRsize
 0002:00001C60       ulUtilSize
 0000:00000000  Imp  WinAssociateHelpInstance (HELPMGR.54)
 0000:00000000  Imp  WinBeginPaint        (PMWIN.703)
 0000:00000000  Imp  WinCreateHelpInstance (HELPMGR.51)
 0000:00000000  Imp  WinCreateMsgQueue    (PMWIN.716)
 0000:00000000  Imp  WinCreateStdWindow   (PMWIN.908)
 0000:00000000  Imp  WinDefDlgProc        (PMWIN.910)
 0000:00000000  Imp  WinDefWindowProc     (PMWIN.911)
 0000:00000000  Imp  WinDestroyHelpInstance (HELPMGR.52)
 0000:00000000  Imp  WinDestroyMsgQueue   (PMWIN.726)
 0000:00000000  Imp  WinDestroyWindow     (PMWIN.728)
 0000:00000000  Imp  WinDismissDlg        (PMWIN.729)
 0000:00000000  Imp  WinDispatchMsg       (PMWIN.912)
 0000:00000000  Imp  WinDlgBox            (PMWIN.923)
 0000:00000000  Imp  WinEndPaint          (PMWIN.738)
 0000:00000000  Imp  WinFillRect          (PMWIN.743)
 0000:00000000  Imp  WinGetMsg            (PMWIN.915)
 0000:00000000  Imp  WinGetPS             (PMWIN.757)
 0000:00000000  Imp  WinInitialize        (PMWIN.763)
 0000:00000000  Imp  WinInvalidateRect    (PMWIN.765)
 0000:00000000  Imp  WinMessageBox        (PMWIN.789)
 0000:00000000  Imp  WinOpenWindowDC      (PMWIN.794)
 0000:00000000  Imp  WinPostMsg           (PMWIN.919)
 0000:00000000  Imp  WinQueryDlgItemText  (PMWIN.815)
 0000:00000000  Imp  WinQueryHelpInstance (HELPMGR.53)
 0000:00000000  Imp  WinQuerySysValue     (PMWIN.829)
 0000:00000000  Imp  WinQueryWindowPos    (PMWIN.837)
 0000:00000000  Imp  WinQueryWindowRect   (PMWIN.840)
 0000:00000000  Imp  WinRegisterClass     (PMWIN.926)
 0000:00000000  Imp  WinReleaseHook       (PMWIN.927)
 0000:00000000  Imp  WinReleasePS         (PMWIN.848)
 0000:00000000  Imp  WinSendDlgItemMsg    (PMWIN.903)
 0000:00000000  Imp  WinSendMsg           (PMWIN.920)
 0000:00000000  Imp  WinSetDlgItemText    (PMWIN.859)
 0000:00000000  Imp  WinSetFocus          (PMWIN.860)
 0000:00000000  Imp  WinSetHook           (PMWIN.928)
 0000:00000000  Imp  WinSetWindowPos      (PMWIN.875)
 0000:00000000  Imp  WinSetWindowText     (PMWIN.877)
 0000:00000000  Imp  WinShowWindow        (PMWIN.883)
 0000:00000000  Imp  WinTerminate         (PMWIN.888)
 0000:00000000  Imp  WinWindowFromID      (PMWIN.899)
 0002:00000F44       _argc
 0002:00000F48       _argv
 0000:00000000  Imp  _callback_opt_sys    (OS2LSRTL.273)
 0001:00004444       _cppinit
 0000:00000000  Imp  _CRT_init            (OS2LSRTL.467)
 0000:00000000  Imp  _CRT_term            (OS2LSRTL.457)
 0000:00000000  Imp  _ctype               (OS2LSRTL.220)
 0000:00000000  Imp  _environ             (OS2LSRTL.396)
 0000:00000000  Imp  _exception_procinit  (OS2LSRTL.2)
 0001:00004384       _exestart
 0000:00000000  Imp  _EXE_Exception       (OS2LSRTL.114)
 0000:00000000  Imp  _fpninit             (OS2LSRTL.380)
 0000:00000000  Imp  _fpreset             (OS2LSRTL.374)
 0000:00000000  Imp  _matherr             (OS2LSRTL.346)
 0000:00000000  Imp  _PrintErrMsg         (OS2LSRTL.41)
 0001:0000444C       _setuparg
 0000:00000000  Imp  _sprintfieee         (OS2LSRTL.32)
 0000:00000000  Imp  _terminate           (OS2LSRTL.482)
 0001:00004644       __sctordtorInit
 0001:0000464C       __sctordtorTerm
 0001:00004654       __wctordtorInit
 0001:00004658       __wctordtorTerm

  Address         Publics by Value

 0000:00000000  Imp  WinQueryDlgItemText  (PMWIN.815)
 0000:00000000  Imp  WinPostMsg           (PMWIN.919)
 0000:00000000  Imp  WinCreateMsgQueue    (PMWIN.716)
 0000:00000000  Imp  DosClose             (DOSCALLS.257)
 0000:00000000  Imp  WinSendDlgItemMsg    (PMWIN.903)
 0000:00000000  Imp  GpiDestroyPS         (PMGPI.379)
 0000:00000000  Imp  WinDispatchMsg       (PMWIN.912)
 0000:00000000  Imp  WinSetHook           (PMWIN.928)
 0000:00000000  Imp  PrfOpenProfile       (PMSHAPI.102)
 0000:00000000  Imp  _terminate           (OS2LSRTL.482)
 0000:00000000  Imp  DosQuerySysInfo      (DOSCALLS.348)
 0000:00000000  Imp  MessageBox           (OS2LS_UT.29)
 0000:00000000  Imp  DosUnsetExceptionHandler (DOSCALLS.355)
 0000:00000000  Imp  WinReleaseHook       (PMWIN.927)
 0000:00000000  Imp  WinDefDlgProc        (PMWIN.910)
 0000:00000000  Imp  DosLoadModule        (DOSCALLS.318)
 0000:00000000  Imp  _ctype               (OS2LSRTL.220)
 0000:00000000  Imp  WinMessageBox        (PMWIN.789)
 0000:00000000  Imp  GpiSetCharSet        (PMGPI.513)
 0000:00000000  Imp  DosFreeModule        (DOSCALLS.322)
 0000:00000000  Imp  WinQueryHelpInstance (HELPMGR.53)
 0000:00000000  Imp  WinDismissDlg        (PMWIN.729)
 0000:00000000  Imp  WinInitialize        (PMWIN.763)
 0000:00000000  Imp  GpiQueryFonts        (PMGPI.586)
 0000:00000000  Imp  WinCreateHelpInstance (HELPMGR.51)
 0000:00000000  Imp  WinShowWindow        (PMWIN.883)
 0000:00000000  Imp  MenuItemEnable       (OS2LS_UT.9)
 0000:00000000  Imp  _environ             (OS2LSRTL.396)
 0000:00000000  Imp  WinOpenWindowDC      (PMWIN.794)
 0000:00000000  Imp  WinInvalidateRect    (PMWIN.765)
 0000:00000000  Imp  DosQueryFileInfo     (DOSCALLS.279)
 0000:00000000  Imp  malloc               (OS2LSRTL.167)
 0000:00000000  Imp  WinWindowFromID      (PMWIN.899)
 0000:00000000  Imp  _CRT_init            (OS2LSRTL.467)
 0000:00000000  Imp  _CRT_term            (OS2LSRTL.457)
 0000:00000000  Imp  WinRegisterClass     (PMWIN.926)
 0000:00000000  Imp  GpiCharStringAt      (PMGPI.359)
 0000:00000000  Imp  WinGetMsg            (PMWIN.915)
 0000:00000000  Imp  GpiCreateLogFont     (PMGPI.368)
 0000:00000000  Imp  AppendINI            (OS2LS_UT.24)
 0000:00000000  Imp  PrfCloseProfile      (PMSHAPI.103)
 0000:00000000  Imp  exit                 (OS2LSRTL.106)
 0000:00000000  Imp  WinSetWindowPos      (PMWIN.875)
 0000:00000000  Imp  DosFreeMem           (DOSCALLS.304)
 0000:00000000  Imp  WinAssociateHelpInstance (HELPMGR.54)
 0000:00000000  Imp  free                 (OS2LSRTL.88)
 0000:00000000  Imp  WinDlgBox            (PMWIN.923)
 0000:00000000  Imp  WinDefWindowProc     (PMWIN.911)
 0000:00000000  Imp  DosQueryProcAddr     (DOSCALLS.321)
 0000:00000000  Imp  PrfQueryProfileData  (PMSHAPI.117)
 0000:00000000  Imp  _EXE_Exception       (OS2LSRTL.114)
 0000:00000000  Imp  WinSendMsg           (PMWIN.920)
 0000:00000000  Imp  DosQueryPathInfo     (DOSCALLS.223)
 0000:00000000  Imp  GpiSetBackColor      (PMGPI.504)
 0000:00000000  Imp  WinDestroyWindow     (PMWIN.728)
 0000:00000000  Imp  _fpninit             (OS2LSRTL.380)
 0000:00000000  Imp  realloc              (OS2LSRTL.277)
 0000:00000000  Imp  GpiSetColor          (PMGPI.517)
 0000:00000000  Imp  WinReleasePS         (PMWIN.848)
 0000:00000000  Imp  DosBeep              (DOSCALLS.286)
 0000:00000000  Imp  Checked              (OS2LS_UT.22)
 0000:00000000  Imp  WinQueryWindowPos    (PMWIN.837)
 0000:00000000  Imp  WinTerminate         (PMWIN.888)
 0000:00000000  Imp  _callback_opt_sys    (OS2LSRTL.273)
 0000:00000000  Imp  WinEndPaint          (PMWIN.738)
 0000:00000000  Imp  CheckButton          (OS2LS_UT.3)
 0000:00000000  Imp  DosAllocMem          (DOSCALLS.299)
 0000:00000000  Imp  DosRead              (DOSCALLS.281)
 0000:00000000  Imp  DosDevIOCtl          (DOSCALLS.284)
 0000:00000000  Imp  WinDestroyHelpInstance (HELPMGR.52)
 0000:00000000  Imp  WinCreateStdWindow   (PMWIN.908)
 0000:00000000  Imp  WinFillRect          (PMWIN.743)
 0000:00000000  Imp  _exception_procinit  (OS2LSRTL.2)
 0000:00000000  Imp  WinDestroyMsgQueue   (PMWIN.726)
 0000:00000000  Imp  WinSetFocus          (PMWIN.860)
 0000:00000000  Imp  PrfQueryProfileString (PMSHAPI.115)
 0000:00000000  Imp  WinQueryWindowRect   (PMWIN.840)
 0000:00000000  Imp  WinGetPS             (PMWIN.757)
 0000:00000000  Imp  ControlEnable        (OS2LS_UT.7)
 0000:00000000  Imp  _PrintErrMsg         (OS2LSRTL.41)
 0000:00000000  Imp  WinSetDlgItemText    (PMWIN.859)
 0000:00000000  Imp  WinSetWindowText     (PMWIN.877)
 0000:00000000  Imp  DosOpen              (DOSCALLS.273)
 0000:00000000  Imp  GpiSetBackMix        (PMGPI.505)
 0000:00000000  Imp  WinBeginPaint        (PMWIN.703)
 0000:00000000  Imp  _sprintfieee         (OS2LSRTL.32)
 0000:00000000  Imp  DosExit              (DOSCALLS.234)
 0000:00000000  Imp  WinQuerySysValue     (PMWIN.829)
 0000:00000000  Imp  _fpreset             (OS2LSRTL.374)
 0000:00000000  Imp  DosSetExceptionHandler (DOSCALLS.354)
 0000:00000000  Imp  DosExitList          (DOSCALLS.296)
 0000:00000000  Imp  _matherr             (OS2LSRTL.346)
 0001:00000090       fnwpUninstallDlgProc
 0001:00000420       fnwpInfoDlgProc
 0001:000006E4       fnwpTransferDlg
 0001:00002620       main
 0001:000037F0       fnwpAboutBoxDlgProc
 0001:000038C4       DestroyHelpInstance
 0001:000038F0       DisplayHelpPanel
 0001:00003950       HelpIndex
 0001:000039F4       HelpHelpForHelp
 0001:00003A28       HelpInit
 0001:00003B40       CenterWindow
 0001:00003BB0       SetInitialPosition
 0001:00003C34       GetDriverPath
 0001:00003CE0       SetEndOfPath
 0001:00003DA0       PrintProgress
 0001:00003F60       PrintUninstallProgress
 0001:00004110       PrintDebug
 0001:00004225       PrintBanners
 0001:00004318       MemAlloc
 0001:00004373       MemFree
 0001:00004384       _exestart
 0001:00004444       _cppinit
 0001:0000444C       _setuparg
 0001:00004644       __sctordtorInit
 0001:0000464C       __sctordtorTerm
 0001:00004654       __wctordtorInit
 0001:00004658       __wctordtorTerm
 0002:00000C7C       bCOMscopeToInstall
 0002:00000C88       bUtilToInstall
 0002:00000C8C       bPagerToInstall
 0002:00000C90       bPDRtoInstall
 0002:00000C94       bLibrariesToInstall
 0002:00000C98       bObjectsToCreate
 0002:00000C9C       bItemOneLocked
 0002:00000E7C       szHelpWindowTitle
 0002:00000F20       bItemTwoLocked
 0002:00000F24       bItemThreeLocked
 0002:00000F28       bItemFourLocked
 0002:00000F2C       bItemFiveLocked
 0002:00000F38       bInstallDemo
 0002:00000F44       _argc
 0002:00000F48       _argv
 0002:00000F4C       szTransferLibraryName
 0002:00000F88       szDriverVersionString
 0002:00000FEC       szConfigDDhelpFileName
 0002:00001028       szConfigDDfunctionName
 0002:00001064       ulBootDrive
 0002:00001068       szBannerOne
 0002:000010A8       szConfigAppLibraryName
 0002:000010E4       fattBigFont
 0002:0000111C       szBannerTwo
 0002:00001168       ulPagerSize
 0002:0000116C       fattMsgFont
 0002:000011A4       szTransferFunctionName
 0002:000011E0       szAppVersion
 0002:00001234       stUninstall
 0002:00001254       szAppIconFile
 0002:00001280       szFalseStart1
 0002:00001410       szFalseStart2
 0002:000015A0       stFileStatus
 0002:000015B8       ulInstallSize
 0002:000015BC       szCOMiVersion
 0002:00001610       hConfigProfile
 0002:00001614       szConfigAppHelpFileName
 0002:00001650       szConfigDDname
 0002:00001664       szDebugLineOne
 0002:000016C8       szConfigAppFunctionName
 0002:00001704       hSourceProfile
 0002:00001708       ulCOMscopeSize
 0002:0000170C       szInfoFileName
 0002:00001724       szDebugLineTwo
 0002:00001788       hwndInstallHelpInstance
 0002:0000178C       hdcPs
 0002:00001790       hpsPs
 0002:00001798       szConfigAppName
 0002:000017AC       szPagerFileName
 0002:000017D4       pszHelpFileSpec
 0002:000017DC       stInst
 0002:00001850       szDefaultDLLpath
 0002:00001890       szInstallVersion
 0002:000018E0       szCheckOneCaption
 0002:0000191C       szLicenseFileName
 0002:00001934       hInstalledProfile
 0002:00001938       szCheckTwoCaption
 0002:00001974       szDefaultAppsPath
 0002:000019B8       szCOMscopeVersion
 0002:00001A08       szCheckFiveCaption
 0002:00001A44       szCheckFourCaption
 0002:00001A80       szDDname
 0002:00001AAC       pszPath
 0002:00001AB0       pszCurrentAppsPath
 0002:00001AB4       stBigCell
 0002:00001AB8       stCOMiCFG
 0002:00001B08       stPageCFG
 0002:00001B24       stMsgCell
 0002:00001B28       ulPDRsize
 0002:00001B2C       ulOEMtype
 0002:00001B30       szCheckThreeCaption
 0002:00001B6C       ulCOMiSize
 0002:00001B70       szEXEtitle
 0002:00001BC8       hwndClient
 0002:00001BCC       szDemoPath
 0002:00001C1C       ulLibsSize
 0002:00001C20       szConfigDDlibraryName
 0002:00001C5C       pszUninstallIniPath
 0002:00001C60       ulUtilSize

Program entry point at 0001:00004384
